ARM GAS  C:\Users\Rafael\AppData\Local\Temp\ccmZOUTf.s 			page 1


   1              		.syntax unified
   2              		.cpu cortex-m0
   3              		.fpu softvfp
   4              		.eabi_attribute 20, 1
   5              		.eabi_attribute 21, 1
   6              		.eabi_attribute 23, 3
   7              		.eabi_attribute 24, 1
   8              		.eabi_attribute 25, 1
   9              		.eabi_attribute 26, 1
  10              		.eabi_attribute 30, 1
  11              		.eabi_attribute 34, 0
  12              		.eabi_attribute 18, 4
  13              		.thumb
  14              		.syntax unified
  15              		.file	"UART_1_UART.c"
  16              		.text
  17              	.Ltext0:
  18              		.cfi_sections	.debug_frame
  19              		.section	.text.UART_1_UartInit,"ax",%progbits
  20              		.align	2
  21              		.global	UART_1_UartInit
  22              		.code	16
  23              		.thumb_func
  24              		.type	UART_1_UartInit, %function
  25              	UART_1_UartInit:
  26              	.LFB2:
  27              		.file 1 "Generated_Source\\PSoC4\\UART_1_UART.c"
   1:Generated_Source\PSoC4/UART_1_UART.c **** /***************************************************************************//**
   2:Generated_Source\PSoC4/UART_1_UART.c **** * \file UART_1_UART.c
   3:Generated_Source\PSoC4/UART_1_UART.c **** * \version 3.20
   4:Generated_Source\PSoC4/UART_1_UART.c **** *
   5:Generated_Source\PSoC4/UART_1_UART.c **** * \brief
   6:Generated_Source\PSoC4/UART_1_UART.c **** *  This file provides the source code to the API for the SCB Component in
   7:Generated_Source\PSoC4/UART_1_UART.c **** *  UART mode.
   8:Generated_Source\PSoC4/UART_1_UART.c **** *
   9:Generated_Source\PSoC4/UART_1_UART.c **** * Note:
  10:Generated_Source\PSoC4/UART_1_UART.c **** *
  11:Generated_Source\PSoC4/UART_1_UART.c **** *******************************************************************************
  12:Generated_Source\PSoC4/UART_1_UART.c **** * \copyright
  13:Generated_Source\PSoC4/UART_1_UART.c **** * Copyright 2013-2016, Cypress Semiconductor Corporation.  All rights reserved.
  14:Generated_Source\PSoC4/UART_1_UART.c **** * You may use this file only in accordance with the license, terms, conditions,
  15:Generated_Source\PSoC4/UART_1_UART.c **** * disclaimers, and limitations in the end user license agreement accompanying
  16:Generated_Source\PSoC4/UART_1_UART.c **** * the software package with which this file was provided.
  17:Generated_Source\PSoC4/UART_1_UART.c **** *******************************************************************************/
  18:Generated_Source\PSoC4/UART_1_UART.c **** 
  19:Generated_Source\PSoC4/UART_1_UART.c **** #include "UART_1_PVT.h"
  20:Generated_Source\PSoC4/UART_1_UART.c **** #include "UART_1_SPI_UART_PVT.h"
  21:Generated_Source\PSoC4/UART_1_UART.c **** #include "cyapicallbacks.h"
  22:Generated_Source\PSoC4/UART_1_UART.c **** 
  23:Generated_Source\PSoC4/UART_1_UART.c **** #if (UART_1_UART_WAKE_ENABLE_CONST && UART_1_UART_RX_WAKEUP_IRQ)
  24:Generated_Source\PSoC4/UART_1_UART.c ****     /**
  25:Generated_Source\PSoC4/UART_1_UART.c ****     * \addtogroup group_globals
  26:Generated_Source\PSoC4/UART_1_UART.c ****     * \{
  27:Generated_Source\PSoC4/UART_1_UART.c ****     */
  28:Generated_Source\PSoC4/UART_1_UART.c ****     /** This global variable determines whether to enable Skip Start
  29:Generated_Source\PSoC4/UART_1_UART.c ****     * functionality when UART_1_Sleep() function is called:
  30:Generated_Source\PSoC4/UART_1_UART.c ****     * 0 – disable, other values – enable. Default value is 1.
ARM GAS  C:\Users\Rafael\AppData\Local\Temp\ccmZOUTf.s 			page 2


  31:Generated_Source\PSoC4/UART_1_UART.c ****     * It is only available when Enable wakeup from Deep Sleep Mode is enabled.
  32:Generated_Source\PSoC4/UART_1_UART.c ****     */
  33:Generated_Source\PSoC4/UART_1_UART.c ****     uint8 UART_1_skipStart = 1u;
  34:Generated_Source\PSoC4/UART_1_UART.c ****     /** \} globals */
  35:Generated_Source\PSoC4/UART_1_UART.c **** #endif /* (UART_1_UART_WAKE_ENABLE_CONST && UART_1_UART_RX_WAKEUP_IRQ) */
  36:Generated_Source\PSoC4/UART_1_UART.c **** 
  37:Generated_Source\PSoC4/UART_1_UART.c **** #if(UART_1_SCB_MODE_UNCONFIG_CONST_CFG)
  38:Generated_Source\PSoC4/UART_1_UART.c **** 
  39:Generated_Source\PSoC4/UART_1_UART.c ****     /***************************************
  40:Generated_Source\PSoC4/UART_1_UART.c ****     *  Configuration Structure Initialization
  41:Generated_Source\PSoC4/UART_1_UART.c ****     ***************************************/
  42:Generated_Source\PSoC4/UART_1_UART.c **** 
  43:Generated_Source\PSoC4/UART_1_UART.c ****     const UART_1_UART_INIT_STRUCT UART_1_configUart =
  44:Generated_Source\PSoC4/UART_1_UART.c ****     {
  45:Generated_Source\PSoC4/UART_1_UART.c ****         UART_1_UART_SUB_MODE,
  46:Generated_Source\PSoC4/UART_1_UART.c ****         UART_1_UART_DIRECTION,
  47:Generated_Source\PSoC4/UART_1_UART.c ****         UART_1_UART_DATA_BITS_NUM,
  48:Generated_Source\PSoC4/UART_1_UART.c ****         UART_1_UART_PARITY_TYPE,
  49:Generated_Source\PSoC4/UART_1_UART.c ****         UART_1_UART_STOP_BITS_NUM,
  50:Generated_Source\PSoC4/UART_1_UART.c ****         UART_1_UART_OVS_FACTOR,
  51:Generated_Source\PSoC4/UART_1_UART.c ****         UART_1_UART_IRDA_LOW_POWER,
  52:Generated_Source\PSoC4/UART_1_UART.c ****         UART_1_UART_MEDIAN_FILTER_ENABLE,
  53:Generated_Source\PSoC4/UART_1_UART.c ****         UART_1_UART_RETRY_ON_NACK,
  54:Generated_Source\PSoC4/UART_1_UART.c ****         UART_1_UART_IRDA_POLARITY,
  55:Generated_Source\PSoC4/UART_1_UART.c ****         UART_1_UART_DROP_ON_PARITY_ERR,
  56:Generated_Source\PSoC4/UART_1_UART.c ****         UART_1_UART_DROP_ON_FRAME_ERR,
  57:Generated_Source\PSoC4/UART_1_UART.c ****         UART_1_UART_WAKE_ENABLE,
  58:Generated_Source\PSoC4/UART_1_UART.c ****         0u,
  59:Generated_Source\PSoC4/UART_1_UART.c ****         NULL,
  60:Generated_Source\PSoC4/UART_1_UART.c ****         0u,
  61:Generated_Source\PSoC4/UART_1_UART.c ****         NULL,
  62:Generated_Source\PSoC4/UART_1_UART.c ****         UART_1_UART_MP_MODE_ENABLE,
  63:Generated_Source\PSoC4/UART_1_UART.c ****         UART_1_UART_MP_ACCEPT_ADDRESS,
  64:Generated_Source\PSoC4/UART_1_UART.c ****         UART_1_UART_MP_RX_ADDRESS,
  65:Generated_Source\PSoC4/UART_1_UART.c ****         UART_1_UART_MP_RX_ADDRESS_MASK,
  66:Generated_Source\PSoC4/UART_1_UART.c ****         (uint32) UART_1_SCB_IRQ_INTERNAL,
  67:Generated_Source\PSoC4/UART_1_UART.c ****         UART_1_UART_INTR_RX_MASK,
  68:Generated_Source\PSoC4/UART_1_UART.c ****         UART_1_UART_RX_TRIGGER_LEVEL,
  69:Generated_Source\PSoC4/UART_1_UART.c ****         UART_1_UART_INTR_TX_MASK,
  70:Generated_Source\PSoC4/UART_1_UART.c ****         UART_1_UART_TX_TRIGGER_LEVEL,
  71:Generated_Source\PSoC4/UART_1_UART.c ****         (uint8) UART_1_UART_BYTE_MODE_ENABLE,
  72:Generated_Source\PSoC4/UART_1_UART.c ****         (uint8) UART_1_UART_CTS_ENABLE,
  73:Generated_Source\PSoC4/UART_1_UART.c ****         (uint8) UART_1_UART_CTS_POLARITY,
  74:Generated_Source\PSoC4/UART_1_UART.c ****         (uint8) UART_1_UART_RTS_POLARITY,
  75:Generated_Source\PSoC4/UART_1_UART.c ****         (uint8) UART_1_UART_RTS_FIFO_LEVEL
  76:Generated_Source\PSoC4/UART_1_UART.c ****     };
  77:Generated_Source\PSoC4/UART_1_UART.c **** 
  78:Generated_Source\PSoC4/UART_1_UART.c **** 
  79:Generated_Source\PSoC4/UART_1_UART.c ****     /*******************************************************************************
  80:Generated_Source\PSoC4/UART_1_UART.c ****     * Function Name: UART_1_UartInit
  81:Generated_Source\PSoC4/UART_1_UART.c ****     ****************************************************************************//**
  82:Generated_Source\PSoC4/UART_1_UART.c ****     *
  83:Generated_Source\PSoC4/UART_1_UART.c ****     *  Configures the UART_1 for UART operation.
  84:Generated_Source\PSoC4/UART_1_UART.c ****     *
  85:Generated_Source\PSoC4/UART_1_UART.c ****     *  This function is intended specifically to be used when the UART_1
  86:Generated_Source\PSoC4/UART_1_UART.c ****     *  configuration is set to “Unconfigured UART_1” in the customizer.
  87:Generated_Source\PSoC4/UART_1_UART.c ****     *  After initializing the UART_1 in UART mode using this function,
ARM GAS  C:\Users\Rafael\AppData\Local\Temp\ccmZOUTf.s 			page 3


  88:Generated_Source\PSoC4/UART_1_UART.c ****     *  the component can be enabled using the UART_1_Start() or
  89:Generated_Source\PSoC4/UART_1_UART.c ****     * UART_1_Enable() function.
  90:Generated_Source\PSoC4/UART_1_UART.c ****     *  This function uses a pointer to a structure that provides the configuration
  91:Generated_Source\PSoC4/UART_1_UART.c ****     *  settings. This structure contains the same information that would otherwise
  92:Generated_Source\PSoC4/UART_1_UART.c ****     *  be provided by the customizer settings.
  93:Generated_Source\PSoC4/UART_1_UART.c ****     *
  94:Generated_Source\PSoC4/UART_1_UART.c ****     *  \param config: pointer to a structure that contains the following list of
  95:Generated_Source\PSoC4/UART_1_UART.c ****     *   fields. These fields match the selections available in the customizer.
  96:Generated_Source\PSoC4/UART_1_UART.c ****     *   Refer to the customizer for further description of the settings.
  97:Generated_Source\PSoC4/UART_1_UART.c ****     *
  98:Generated_Source\PSoC4/UART_1_UART.c ****     *******************************************************************************/
  99:Generated_Source\PSoC4/UART_1_UART.c ****     void UART_1_UartInit(const UART_1_UART_INIT_STRUCT *config)
 100:Generated_Source\PSoC4/UART_1_UART.c ****     {
 101:Generated_Source\PSoC4/UART_1_UART.c ****         uint32 pinsConfig;
 102:Generated_Source\PSoC4/UART_1_UART.c **** 
 103:Generated_Source\PSoC4/UART_1_UART.c ****         if (NULL == config)
 104:Generated_Source\PSoC4/UART_1_UART.c ****         {
 105:Generated_Source\PSoC4/UART_1_UART.c ****             CYASSERT(0u != 0u); /* Halt execution due to bad function parameter */
 106:Generated_Source\PSoC4/UART_1_UART.c ****         }
 107:Generated_Source\PSoC4/UART_1_UART.c ****         else
 108:Generated_Source\PSoC4/UART_1_UART.c ****         {
 109:Generated_Source\PSoC4/UART_1_UART.c ****             /* Get direction to configure UART pins: TX, RX or TX+RX */
 110:Generated_Source\PSoC4/UART_1_UART.c ****             pinsConfig  = config->direction;
 111:Generated_Source\PSoC4/UART_1_UART.c **** 
 112:Generated_Source\PSoC4/UART_1_UART.c ****         #if !(UART_1_CY_SCBIP_V0 || UART_1_CY_SCBIP_V1)
 113:Generated_Source\PSoC4/UART_1_UART.c ****             /* Add RTS and CTS pins to configure */
 114:Generated_Source\PSoC4/UART_1_UART.c ****             pinsConfig |= (0u != config->rtsRxFifoLevel) ? (UART_1_UART_RTS_PIN_ENABLE) : (0u);
 115:Generated_Source\PSoC4/UART_1_UART.c ****             pinsConfig |= (0u != config->enableCts)      ? (UART_1_UART_CTS_PIN_ENABLE) : (0u);
 116:Generated_Source\PSoC4/UART_1_UART.c ****         #endif /* !(UART_1_CY_SCBIP_V0 || UART_1_CY_SCBIP_V1) */
 117:Generated_Source\PSoC4/UART_1_UART.c **** 
 118:Generated_Source\PSoC4/UART_1_UART.c ****             /* Configure pins */
 119:Generated_Source\PSoC4/UART_1_UART.c ****             UART_1_SetPins(UART_1_SCB_MODE_UART, config->mode, pinsConfig);
 120:Generated_Source\PSoC4/UART_1_UART.c **** 
 121:Generated_Source\PSoC4/UART_1_UART.c ****             /* Store internal configuration */
 122:Generated_Source\PSoC4/UART_1_UART.c ****             UART_1_scbMode       = (uint8) UART_1_SCB_MODE_UART;
 123:Generated_Source\PSoC4/UART_1_UART.c ****             UART_1_scbEnableWake = (uint8) config->enableWake;
 124:Generated_Source\PSoC4/UART_1_UART.c ****             UART_1_scbEnableIntr = (uint8) config->enableInterrupt;
 125:Generated_Source\PSoC4/UART_1_UART.c **** 
 126:Generated_Source\PSoC4/UART_1_UART.c ****             /* Set RX direction internal variables */
 127:Generated_Source\PSoC4/UART_1_UART.c ****             UART_1_rxBuffer      =         config->rxBuffer;
 128:Generated_Source\PSoC4/UART_1_UART.c ****             UART_1_rxDataBits    = (uint8) config->dataBits;
 129:Generated_Source\PSoC4/UART_1_UART.c ****             UART_1_rxBufferSize  = (uint8) config->rxBufferSize;
 130:Generated_Source\PSoC4/UART_1_UART.c **** 
 131:Generated_Source\PSoC4/UART_1_UART.c ****             /* Set TX direction internal variables */
 132:Generated_Source\PSoC4/UART_1_UART.c ****             UART_1_txBuffer      =         config->txBuffer;
 133:Generated_Source\PSoC4/UART_1_UART.c ****             UART_1_txDataBits    = (uint8) config->dataBits;
 134:Generated_Source\PSoC4/UART_1_UART.c ****             UART_1_txBufferSize  = (uint8) config->txBufferSize;
 135:Generated_Source\PSoC4/UART_1_UART.c **** 
 136:Generated_Source\PSoC4/UART_1_UART.c ****             /* Configure UART interface */
 137:Generated_Source\PSoC4/UART_1_UART.c ****             if(UART_1_UART_MODE_IRDA == config->mode)
 138:Generated_Source\PSoC4/UART_1_UART.c ****             {
 139:Generated_Source\PSoC4/UART_1_UART.c ****                 /* OVS settings: IrDA */
 140:Generated_Source\PSoC4/UART_1_UART.c ****                 UART_1_CTRL_REG  = ((0u != config->enableIrdaLowPower) ?
 141:Generated_Source\PSoC4/UART_1_UART.c ****                                                 (UART_1_UART_GET_CTRL_OVS_IRDA_LP(config->oversampl
 142:Generated_Source\PSoC4/UART_1_UART.c ****                                                 (UART_1_CTRL_OVS_IRDA_OVS16));
 143:Generated_Source\PSoC4/UART_1_UART.c ****             }
 144:Generated_Source\PSoC4/UART_1_UART.c ****             else
ARM GAS  C:\Users\Rafael\AppData\Local\Temp\ccmZOUTf.s 			page 4


 145:Generated_Source\PSoC4/UART_1_UART.c ****             {
 146:Generated_Source\PSoC4/UART_1_UART.c ****                 /* OVS settings: UART and SmartCard */
 147:Generated_Source\PSoC4/UART_1_UART.c ****                 UART_1_CTRL_REG  = UART_1_GET_CTRL_OVS(config->oversample);
 148:Generated_Source\PSoC4/UART_1_UART.c ****             }
 149:Generated_Source\PSoC4/UART_1_UART.c **** 
 150:Generated_Source\PSoC4/UART_1_UART.c ****             UART_1_CTRL_REG     |= UART_1_GET_CTRL_BYTE_MODE  (config->enableByteMode)      |
 151:Generated_Source\PSoC4/UART_1_UART.c ****                                              UART_1_GET_CTRL_ADDR_ACCEPT(config->multiprocAcceptAdd
 152:Generated_Source\PSoC4/UART_1_UART.c ****                                              UART_1_CTRL_UART;
 153:Generated_Source\PSoC4/UART_1_UART.c **** 
 154:Generated_Source\PSoC4/UART_1_UART.c ****             /* Configure sub-mode: UART, SmartCard or IrDA */
 155:Generated_Source\PSoC4/UART_1_UART.c ****             UART_1_UART_CTRL_REG = UART_1_GET_UART_CTRL_MODE(config->mode);
 156:Generated_Source\PSoC4/UART_1_UART.c **** 
 157:Generated_Source\PSoC4/UART_1_UART.c ****             /* Configure RX direction */
 158:Generated_Source\PSoC4/UART_1_UART.c ****             UART_1_UART_RX_CTRL_REG = UART_1_GET_UART_RX_CTRL_MODE(config->stopBits)              |
 159:Generated_Source\PSoC4/UART_1_UART.c ****                                         UART_1_GET_UART_RX_CTRL_POLARITY(config->enableInvertedRx) 
 160:Generated_Source\PSoC4/UART_1_UART.c ****                                         UART_1_GET_UART_RX_CTRL_MP_MODE(config->enableMultiproc)   
 161:Generated_Source\PSoC4/UART_1_UART.c ****                                         UART_1_GET_UART_RX_CTRL_DROP_ON_PARITY_ERR(config->dropOnPa
 162:Generated_Source\PSoC4/UART_1_UART.c ****                                         UART_1_GET_UART_RX_CTRL_DROP_ON_FRAME_ERR(config->dropOnFra
 163:Generated_Source\PSoC4/UART_1_UART.c **** 
 164:Generated_Source\PSoC4/UART_1_UART.c ****             if(UART_1_UART_PARITY_NONE != config->parity)
 165:Generated_Source\PSoC4/UART_1_UART.c ****             {
 166:Generated_Source\PSoC4/UART_1_UART.c ****                UART_1_UART_RX_CTRL_REG |= UART_1_GET_UART_RX_CTRL_PARITY(config->parity) |
 167:Generated_Source\PSoC4/UART_1_UART.c ****                                                     UART_1_UART_RX_CTRL_PARITY_ENABLED;
 168:Generated_Source\PSoC4/UART_1_UART.c ****             }
 169:Generated_Source\PSoC4/UART_1_UART.c **** 
 170:Generated_Source\PSoC4/UART_1_UART.c ****             UART_1_RX_CTRL_REG      = UART_1_GET_RX_CTRL_DATA_WIDTH(config->dataBits)       |
 171:Generated_Source\PSoC4/UART_1_UART.c ****                                                 UART_1_GET_RX_CTRL_MEDIAN(config->enableMedianFilte
 172:Generated_Source\PSoC4/UART_1_UART.c ****                                                 UART_1_GET_UART_RX_CTRL_ENABLED(config->direction);
 173:Generated_Source\PSoC4/UART_1_UART.c **** 
 174:Generated_Source\PSoC4/UART_1_UART.c ****             UART_1_RX_FIFO_CTRL_REG = UART_1_GET_RX_FIFO_CTRL_TRIGGER_LEVEL(config->rxTriggerLevel)
 175:Generated_Source\PSoC4/UART_1_UART.c **** 
 176:Generated_Source\PSoC4/UART_1_UART.c ****             /* Configure MP address */
 177:Generated_Source\PSoC4/UART_1_UART.c ****             UART_1_RX_MATCH_REG     = UART_1_GET_RX_MATCH_ADDR(config->multiprocAddr) |
 178:Generated_Source\PSoC4/UART_1_UART.c ****                                                 UART_1_GET_RX_MATCH_MASK(config->multiprocAddrMask)
 179:Generated_Source\PSoC4/UART_1_UART.c **** 
 180:Generated_Source\PSoC4/UART_1_UART.c ****             /* Configure RX direction */
 181:Generated_Source\PSoC4/UART_1_UART.c ****             UART_1_UART_TX_CTRL_REG = UART_1_GET_UART_TX_CTRL_MODE(config->stopBits) |
 182:Generated_Source\PSoC4/UART_1_UART.c ****                                                 UART_1_GET_UART_TX_CTRL_RETRY_NACK(config->enableRe
 183:Generated_Source\PSoC4/UART_1_UART.c **** 
 184:Generated_Source\PSoC4/UART_1_UART.c ****             if(UART_1_UART_PARITY_NONE != config->parity)
 185:Generated_Source\PSoC4/UART_1_UART.c ****             {
 186:Generated_Source\PSoC4/UART_1_UART.c ****                UART_1_UART_TX_CTRL_REG |= UART_1_GET_UART_TX_CTRL_PARITY(config->parity) |
 187:Generated_Source\PSoC4/UART_1_UART.c ****                                                     UART_1_UART_TX_CTRL_PARITY_ENABLED;
 188:Generated_Source\PSoC4/UART_1_UART.c ****             }
 189:Generated_Source\PSoC4/UART_1_UART.c **** 
 190:Generated_Source\PSoC4/UART_1_UART.c ****             UART_1_TX_CTRL_REG      = UART_1_GET_TX_CTRL_DATA_WIDTH(config->dataBits)    |
 191:Generated_Source\PSoC4/UART_1_UART.c ****                                                 UART_1_GET_UART_TX_CTRL_ENABLED(config->direction);
 192:Generated_Source\PSoC4/UART_1_UART.c **** 
 193:Generated_Source\PSoC4/UART_1_UART.c ****             UART_1_TX_FIFO_CTRL_REG = UART_1_GET_TX_FIFO_CTRL_TRIGGER_LEVEL(config->txTriggerLevel)
 194:Generated_Source\PSoC4/UART_1_UART.c **** 
 195:Generated_Source\PSoC4/UART_1_UART.c ****         #if !(UART_1_CY_SCBIP_V0 || UART_1_CY_SCBIP_V1)
 196:Generated_Source\PSoC4/UART_1_UART.c ****             UART_1_UART_FLOW_CTRL_REG = UART_1_GET_UART_FLOW_CTRL_CTS_ENABLE(config->enableCts) | \
 197:Generated_Source\PSoC4/UART_1_UART.c ****                                             UART_1_GET_UART_FLOW_CTRL_CTS_POLARITY (config->ctsPola
 198:Generated_Source\PSoC4/UART_1_UART.c ****                                             UART_1_GET_UART_FLOW_CTRL_RTS_POLARITY (config->rtsPola
 199:Generated_Source\PSoC4/UART_1_UART.c ****                                             UART_1_GET_UART_FLOW_CTRL_TRIGGER_LEVEL(config->rtsRxFi
 200:Generated_Source\PSoC4/UART_1_UART.c ****         #endif /* !(UART_1_CY_SCBIP_V0 || UART_1_CY_SCBIP_V1) */
 201:Generated_Source\PSoC4/UART_1_UART.c **** 
ARM GAS  C:\Users\Rafael\AppData\Local\Temp\ccmZOUTf.s 			page 5


 202:Generated_Source\PSoC4/UART_1_UART.c ****             /* Configure interrupt with UART handler but do not enable it */
 203:Generated_Source\PSoC4/UART_1_UART.c ****             CyIntDisable    (UART_1_ISR_NUMBER);
 204:Generated_Source\PSoC4/UART_1_UART.c ****             CyIntSetPriority(UART_1_ISR_NUMBER, UART_1_ISR_PRIORITY);
 205:Generated_Source\PSoC4/UART_1_UART.c ****             (void) CyIntSetVector(UART_1_ISR_NUMBER, &UART_1_SPI_UART_ISR);
 206:Generated_Source\PSoC4/UART_1_UART.c **** 
 207:Generated_Source\PSoC4/UART_1_UART.c ****             /* Configure WAKE interrupt */
 208:Generated_Source\PSoC4/UART_1_UART.c ****         #if(UART_1_UART_RX_WAKEUP_IRQ)
 209:Generated_Source\PSoC4/UART_1_UART.c ****             CyIntDisable    (UART_1_RX_WAKE_ISR_NUMBER);
 210:Generated_Source\PSoC4/UART_1_UART.c ****             CyIntSetPriority(UART_1_RX_WAKE_ISR_NUMBER, UART_1_RX_WAKE_ISR_PRIORITY);
 211:Generated_Source\PSoC4/UART_1_UART.c ****             (void) CyIntSetVector(UART_1_RX_WAKE_ISR_NUMBER, &UART_1_UART_WAKEUP_ISR);
 212:Generated_Source\PSoC4/UART_1_UART.c ****         #endif /* (UART_1_UART_RX_WAKEUP_IRQ) */
 213:Generated_Source\PSoC4/UART_1_UART.c **** 
 214:Generated_Source\PSoC4/UART_1_UART.c ****             /* Configure interrupt sources */
 215:Generated_Source\PSoC4/UART_1_UART.c ****             UART_1_INTR_I2C_EC_MASK_REG = UART_1_NO_INTR_SOURCES;
 216:Generated_Source\PSoC4/UART_1_UART.c ****             UART_1_INTR_SPI_EC_MASK_REG = UART_1_NO_INTR_SOURCES;
 217:Generated_Source\PSoC4/UART_1_UART.c ****             UART_1_INTR_SLAVE_MASK_REG  = UART_1_NO_INTR_SOURCES;
 218:Generated_Source\PSoC4/UART_1_UART.c ****             UART_1_INTR_MASTER_MASK_REG = UART_1_NO_INTR_SOURCES;
 219:Generated_Source\PSoC4/UART_1_UART.c ****             UART_1_INTR_RX_MASK_REG     = config->rxInterruptMask;
 220:Generated_Source\PSoC4/UART_1_UART.c ****             UART_1_INTR_TX_MASK_REG     = config->txInterruptMask;
 221:Generated_Source\PSoC4/UART_1_UART.c ****         
 222:Generated_Source\PSoC4/UART_1_UART.c ****             /* Configure TX interrupt sources to restore. */
 223:Generated_Source\PSoC4/UART_1_UART.c ****             UART_1_IntrTxMask = LO16(UART_1_INTR_TX_MASK_REG);
 224:Generated_Source\PSoC4/UART_1_UART.c **** 
 225:Generated_Source\PSoC4/UART_1_UART.c ****             /* Clear RX buffer indexes */
 226:Generated_Source\PSoC4/UART_1_UART.c ****             UART_1_rxBufferHead     = 0u;
 227:Generated_Source\PSoC4/UART_1_UART.c ****             UART_1_rxBufferTail     = 0u;
 228:Generated_Source\PSoC4/UART_1_UART.c ****             UART_1_rxBufferOverflow = 0u;
 229:Generated_Source\PSoC4/UART_1_UART.c **** 
 230:Generated_Source\PSoC4/UART_1_UART.c ****             /* Clear TX buffer indexes */
 231:Generated_Source\PSoC4/UART_1_UART.c ****             UART_1_txBufferHead = 0u;
 232:Generated_Source\PSoC4/UART_1_UART.c ****             UART_1_txBufferTail = 0u;
 233:Generated_Source\PSoC4/UART_1_UART.c ****         }
 234:Generated_Source\PSoC4/UART_1_UART.c ****     }
 235:Generated_Source\PSoC4/UART_1_UART.c **** 
 236:Generated_Source\PSoC4/UART_1_UART.c **** #else
 237:Generated_Source\PSoC4/UART_1_UART.c **** 
 238:Generated_Source\PSoC4/UART_1_UART.c ****     /*******************************************************************************
 239:Generated_Source\PSoC4/UART_1_UART.c ****     * Function Name: UART_1_UartInit
 240:Generated_Source\PSoC4/UART_1_UART.c ****     ****************************************************************************//**
 241:Generated_Source\PSoC4/UART_1_UART.c ****     *
 242:Generated_Source\PSoC4/UART_1_UART.c ****     *  Configures the SCB for the UART operation.
 243:Generated_Source\PSoC4/UART_1_UART.c ****     *
 244:Generated_Source\PSoC4/UART_1_UART.c ****     *******************************************************************************/
 245:Generated_Source\PSoC4/UART_1_UART.c ****     void UART_1_UartInit(void)
 246:Generated_Source\PSoC4/UART_1_UART.c ****     {
  28              		.loc 1 246 0
  29              		.cfi_startproc
  30              		@ args = 0, pretend = 0, frame = 0
  31              		@ frame_needed = 0, uses_anonymous_args = 0
  32 0000 10B5     		push	{r4, lr}
  33              		.cfi_def_cfa_offset 8
  34              		.cfi_offset 4, -8
  35              		.cfi_offset 14, -4
 247:Generated_Source\PSoC4/UART_1_UART.c ****         /* Configure UART interface */
 248:Generated_Source\PSoC4/UART_1_UART.c ****         UART_1_CTRL_REG = UART_1_UART_DEFAULT_CTRL;
  36              		.loc 1 248 0
  37 0002 154A     		ldr	r2, .L2
ARM GAS  C:\Users\Rafael\AppData\Local\Temp\ccmZOUTf.s 			page 6


  38 0004 154B     		ldr	r3, .L2+4
  39 0006 1A60     		str	r2, [r3]
 249:Generated_Source\PSoC4/UART_1_UART.c **** 
 250:Generated_Source\PSoC4/UART_1_UART.c ****         /* Configure sub-mode: UART, SmartCard or IrDA */
 251:Generated_Source\PSoC4/UART_1_UART.c ****         UART_1_UART_CTRL_REG = UART_1_UART_DEFAULT_UART_CTRL;
  40              		.loc 1 251 0
  41 0008 0023     		movs	r3, #0
  42 000a 154A     		ldr	r2, .L2+8
  43 000c 1360     		str	r3, [r2]
 252:Generated_Source\PSoC4/UART_1_UART.c **** 
 253:Generated_Source\PSoC4/UART_1_UART.c ****         /* Configure RX direction */
 254:Generated_Source\PSoC4/UART_1_UART.c ****         UART_1_UART_RX_CTRL_REG = UART_1_UART_DEFAULT_UART_RX_CTRL;
  44              		.loc 1 254 0
  45 000e 0121     		movs	r1, #1
  46 0010 144A     		ldr	r2, .L2+12
  47 0012 1160     		str	r1, [r2]
 255:Generated_Source\PSoC4/UART_1_UART.c ****         UART_1_RX_CTRL_REG      = UART_1_UART_DEFAULT_RX_CTRL;
  48              		.loc 1 255 0
  49 0014 144A     		ldr	r2, .L2+16
  50 0016 1548     		ldr	r0, .L2+20
  51 0018 0260     		str	r2, [r0]
 256:Generated_Source\PSoC4/UART_1_UART.c ****         UART_1_RX_FIFO_CTRL_REG = UART_1_UART_DEFAULT_RX_FIFO_CTRL;
  52              		.loc 1 256 0
  53 001a 0724     		movs	r4, #7
  54 001c 1448     		ldr	r0, .L2+24
  55 001e 0460     		str	r4, [r0]
 257:Generated_Source\PSoC4/UART_1_UART.c ****         UART_1_RX_MATCH_REG     = UART_1_UART_DEFAULT_RX_MATCH_REG;
  56              		.loc 1 257 0
  57 0020 1448     		ldr	r0, .L2+28
  58 0022 0360     		str	r3, [r0]
 258:Generated_Source\PSoC4/UART_1_UART.c **** 
 259:Generated_Source\PSoC4/UART_1_UART.c ****         /* Configure TX direction */
 260:Generated_Source\PSoC4/UART_1_UART.c ****         UART_1_UART_TX_CTRL_REG = UART_1_UART_DEFAULT_UART_TX_CTRL;
  59              		.loc 1 260 0
  60 0024 1448     		ldr	r0, .L2+32
  61 0026 0160     		str	r1, [r0]
 261:Generated_Source\PSoC4/UART_1_UART.c ****         UART_1_TX_CTRL_REG      = UART_1_UART_DEFAULT_TX_CTRL;
  62              		.loc 1 261 0
  63 0028 1449     		ldr	r1, .L2+36
  64 002a 0A60     		str	r2, [r1]
 262:Generated_Source\PSoC4/UART_1_UART.c ****         UART_1_TX_FIFO_CTRL_REG = UART_1_UART_DEFAULT_TX_FIFO_CTRL;
  65              		.loc 1 262 0
  66 002c 144A     		ldr	r2, .L2+40
  67 002e 1360     		str	r3, [r2]
 263:Generated_Source\PSoC4/UART_1_UART.c **** 
 264:Generated_Source\PSoC4/UART_1_UART.c ****     #if !(UART_1_CY_SCBIP_V0 || UART_1_CY_SCBIP_V1)
 265:Generated_Source\PSoC4/UART_1_UART.c ****         UART_1_UART_FLOW_CTRL_REG = UART_1_UART_DEFAULT_FLOW_CTRL;
  68              		.loc 1 265 0
  69 0030 0421     		movs	r1, #4
  70 0032 144A     		ldr	r2, .L2+44
  71 0034 1160     		str	r1, [r2]
 266:Generated_Source\PSoC4/UART_1_UART.c ****     #endif /* !(UART_1_CY_SCBIP_V0 || UART_1_CY_SCBIP_V1) */
 267:Generated_Source\PSoC4/UART_1_UART.c **** 
 268:Generated_Source\PSoC4/UART_1_UART.c ****         /* Configure interrupt with UART handler but do not enable it */
 269:Generated_Source\PSoC4/UART_1_UART.c ****     #if(UART_1_SCB_IRQ_INTERNAL)
 270:Generated_Source\PSoC4/UART_1_UART.c ****         CyIntDisable    (UART_1_ISR_NUMBER);
 271:Generated_Source\PSoC4/UART_1_UART.c ****         CyIntSetPriority(UART_1_ISR_NUMBER, UART_1_ISR_PRIORITY);
ARM GAS  C:\Users\Rafael\AppData\Local\Temp\ccmZOUTf.s 			page 7


 272:Generated_Source\PSoC4/UART_1_UART.c ****         (void) CyIntSetVector(UART_1_ISR_NUMBER, &UART_1_SPI_UART_ISR);
 273:Generated_Source\PSoC4/UART_1_UART.c ****     #endif /* (UART_1_SCB_IRQ_INTERNAL) */
 274:Generated_Source\PSoC4/UART_1_UART.c **** 
 275:Generated_Source\PSoC4/UART_1_UART.c ****         /* Configure WAKE interrupt */
 276:Generated_Source\PSoC4/UART_1_UART.c ****     #if(UART_1_UART_RX_WAKEUP_IRQ)
 277:Generated_Source\PSoC4/UART_1_UART.c ****         CyIntDisable    (UART_1_RX_WAKE_ISR_NUMBER);
 278:Generated_Source\PSoC4/UART_1_UART.c ****         CyIntSetPriority(UART_1_RX_WAKE_ISR_NUMBER, UART_1_RX_WAKE_ISR_PRIORITY);
 279:Generated_Source\PSoC4/UART_1_UART.c ****         (void) CyIntSetVector(UART_1_RX_WAKE_ISR_NUMBER, &UART_1_UART_WAKEUP_ISR);
 280:Generated_Source\PSoC4/UART_1_UART.c ****     #endif /* (UART_1_UART_RX_WAKEUP_IRQ) */
 281:Generated_Source\PSoC4/UART_1_UART.c **** 
 282:Generated_Source\PSoC4/UART_1_UART.c ****         /* Configure interrupt sources */
 283:Generated_Source\PSoC4/UART_1_UART.c ****         UART_1_INTR_I2C_EC_MASK_REG = UART_1_UART_DEFAULT_INTR_I2C_EC_MASK;
  72              		.loc 1 283 0
  73 0036 144A     		ldr	r2, .L2+48
  74 0038 1360     		str	r3, [r2]
 284:Generated_Source\PSoC4/UART_1_UART.c ****         UART_1_INTR_SPI_EC_MASK_REG = UART_1_UART_DEFAULT_INTR_SPI_EC_MASK;
  75              		.loc 1 284 0
  76 003a 144A     		ldr	r2, .L2+52
  77 003c 1360     		str	r3, [r2]
 285:Generated_Source\PSoC4/UART_1_UART.c ****         UART_1_INTR_SLAVE_MASK_REG  = UART_1_UART_DEFAULT_INTR_SLAVE_MASK;
  78              		.loc 1 285 0
  79 003e 144A     		ldr	r2, .L2+56
  80 0040 1360     		str	r3, [r2]
 286:Generated_Source\PSoC4/UART_1_UART.c ****         UART_1_INTR_MASTER_MASK_REG = UART_1_UART_DEFAULT_INTR_MASTER_MASK;
  81              		.loc 1 286 0
  82 0042 144A     		ldr	r2, .L2+60
  83 0044 1360     		str	r3, [r2]
 287:Generated_Source\PSoC4/UART_1_UART.c ****         UART_1_INTR_RX_MASK_REG     = UART_1_UART_DEFAULT_INTR_RX_MASK;
  84              		.loc 1 287 0
  85 0046 144A     		ldr	r2, .L2+64
  86 0048 1360     		str	r3, [r2]
 288:Generated_Source\PSoC4/UART_1_UART.c ****         UART_1_INTR_TX_MASK_REG     = UART_1_UART_DEFAULT_INTR_TX_MASK;
  87              		.loc 1 288 0
  88 004a 144A     		ldr	r2, .L2+68
  89 004c 1360     		str	r3, [r2]
 289:Generated_Source\PSoC4/UART_1_UART.c ****     
 290:Generated_Source\PSoC4/UART_1_UART.c ****         /* Configure TX interrupt sources to restore. */
 291:Generated_Source\PSoC4/UART_1_UART.c ****         UART_1_IntrTxMask = LO16(UART_1_INTR_TX_MASK_REG);
  90              		.loc 1 291 0
  91 004e 1268     		ldr	r2, [r2]
  92 0050 134B     		ldr	r3, .L2+72
  93 0052 1A80     		strh	r2, [r3]
 292:Generated_Source\PSoC4/UART_1_UART.c **** 
 293:Generated_Source\PSoC4/UART_1_UART.c ****     #if(UART_1_INTERNAL_RX_SW_BUFFER_CONST)
 294:Generated_Source\PSoC4/UART_1_UART.c ****         UART_1_rxBufferHead     = 0u;
 295:Generated_Source\PSoC4/UART_1_UART.c ****         UART_1_rxBufferTail     = 0u;
 296:Generated_Source\PSoC4/UART_1_UART.c ****         UART_1_rxBufferOverflow = 0u;
 297:Generated_Source\PSoC4/UART_1_UART.c ****     #endif /* (UART_1_INTERNAL_RX_SW_BUFFER_CONST) */
 298:Generated_Source\PSoC4/UART_1_UART.c **** 
 299:Generated_Source\PSoC4/UART_1_UART.c ****     #if(UART_1_INTERNAL_TX_SW_BUFFER_CONST)
 300:Generated_Source\PSoC4/UART_1_UART.c ****         UART_1_txBufferHead = 0u;
 301:Generated_Source\PSoC4/UART_1_UART.c ****         UART_1_txBufferTail = 0u;
 302:Generated_Source\PSoC4/UART_1_UART.c ****     #endif /* (UART_1_INTERNAL_TX_SW_BUFFER_CONST) */
 303:Generated_Source\PSoC4/UART_1_UART.c ****     }
  94              		.loc 1 303 0
  95              		@ sp needed
  96 0054 10BD     		pop	{r4, pc}
ARM GAS  C:\Users\Rafael\AppData\Local\Temp\ccmZOUTf.s 			page 8


  97              	.L3:
  98 0056 C046     		.align	2
  99              	.L2:
 100 0058 0B000002 		.word	33554443
 101 005c 00002440 		.word	1076101120
 102 0060 40002440 		.word	1076101184
 103 0064 48002440 		.word	1076101192
 104 0068 07000080 		.word	-2147483641
 105 006c 00032440 		.word	1076101888
 106 0070 04032440 		.word	1076101892
 107 0074 10032440 		.word	1076101904
 108 0078 44002440 		.word	1076101188
 109 007c 00022440 		.word	1076101632
 110 0080 04022440 		.word	1076101636
 111 0084 50002440 		.word	1076101200
 112 0088 880E2440 		.word	1076104840
 113 008c C80E2440 		.word	1076104904
 114 0090 480F2440 		.word	1076105032
 115 0094 080F2440 		.word	1076104968
 116 0098 C80F2440 		.word	1076105160
 117 009c 880F2440 		.word	1076105096
 118 00a0 00000000 		.word	UART_1_IntrTxMask
 119              		.cfi_endproc
 120              	.LFE2:
 121              		.size	UART_1_UartInit, .-UART_1_UartInit
 122              		.section	.text.UART_1_UartPostEnable,"ax",%progbits
 123              		.align	2
 124              		.global	UART_1_UartPostEnable
 125              		.code	16
 126              		.thumb_func
 127              		.type	UART_1_UartPostEnable, %function
 128              	UART_1_UartPostEnable:
 129              	.LFB3:
 304:Generated_Source\PSoC4/UART_1_UART.c **** #endif /* (UART_1_SCB_MODE_UNCONFIG_CONST_CFG) */
 305:Generated_Source\PSoC4/UART_1_UART.c **** 
 306:Generated_Source\PSoC4/UART_1_UART.c **** 
 307:Generated_Source\PSoC4/UART_1_UART.c **** /*******************************************************************************
 308:Generated_Source\PSoC4/UART_1_UART.c **** * Function Name: UART_1_UartPostEnable
 309:Generated_Source\PSoC4/UART_1_UART.c **** ****************************************************************************//**
 310:Generated_Source\PSoC4/UART_1_UART.c **** *
 311:Generated_Source\PSoC4/UART_1_UART.c **** *  Restores HSIOM settings for the UART output pins (TX and/or RTS) to be
 312:Generated_Source\PSoC4/UART_1_UART.c **** *  controlled by the SCB UART.
 313:Generated_Source\PSoC4/UART_1_UART.c **** *
 314:Generated_Source\PSoC4/UART_1_UART.c **** *******************************************************************************/
 315:Generated_Source\PSoC4/UART_1_UART.c **** void UART_1_UartPostEnable(void)
 316:Generated_Source\PSoC4/UART_1_UART.c **** {
 130              		.loc 1 316 0
 131              		.cfi_startproc
 132              		@ args = 0, pretend = 0, frame = 0
 133              		@ frame_needed = 0, uses_anonymous_args = 0
 134              		@ link register save eliminated.
 317:Generated_Source\PSoC4/UART_1_UART.c **** #if (UART_1_SCB_MODE_UNCONFIG_CONST_CFG)
 318:Generated_Source\PSoC4/UART_1_UART.c ****     #if (UART_1_TX_SCL_MISO_PIN)
 319:Generated_Source\PSoC4/UART_1_UART.c ****         if (UART_1_CHECK_TX_SCL_MISO_PIN_USED)
 320:Generated_Source\PSoC4/UART_1_UART.c ****         {
 321:Generated_Source\PSoC4/UART_1_UART.c ****             /* Set SCB UART to drive the output pin */
 322:Generated_Source\PSoC4/UART_1_UART.c ****             UART_1_SET_HSIOM_SEL(UART_1_TX_SCL_MISO_HSIOM_REG, UART_1_TX_SCL_MISO_HSIOM_MASK,
ARM GAS  C:\Users\Rafael\AppData\Local\Temp\ccmZOUTf.s 			page 9


 323:Generated_Source\PSoC4/UART_1_UART.c ****                                            UART_1_TX_SCL_MISO_HSIOM_POS, UART_1_TX_SCL_MISO_HSIOM_S
 324:Generated_Source\PSoC4/UART_1_UART.c ****         }
 325:Generated_Source\PSoC4/UART_1_UART.c ****     #endif /* (UART_1_TX_SCL_MISO_PIN_PIN) */
 326:Generated_Source\PSoC4/UART_1_UART.c **** 
 327:Generated_Source\PSoC4/UART_1_UART.c ****     #if !(UART_1_CY_SCBIP_V0 || UART_1_CY_SCBIP_V1)
 328:Generated_Source\PSoC4/UART_1_UART.c ****         #if (UART_1_RTS_SS0_PIN)
 329:Generated_Source\PSoC4/UART_1_UART.c ****             if (UART_1_CHECK_RTS_SS0_PIN_USED)
 330:Generated_Source\PSoC4/UART_1_UART.c ****             {
 331:Generated_Source\PSoC4/UART_1_UART.c ****                 /* Set SCB UART to drive the output pin */
 332:Generated_Source\PSoC4/UART_1_UART.c ****                 UART_1_SET_HSIOM_SEL(UART_1_RTS_SS0_HSIOM_REG, UART_1_RTS_SS0_HSIOM_MASK,
 333:Generated_Source\PSoC4/UART_1_UART.c ****                                                UART_1_RTS_SS0_HSIOM_POS, UART_1_RTS_SS0_HSIOM_SEL_U
 334:Generated_Source\PSoC4/UART_1_UART.c ****             }
 335:Generated_Source\PSoC4/UART_1_UART.c ****         #endif /* (UART_1_RTS_SS0_PIN) */
 336:Generated_Source\PSoC4/UART_1_UART.c ****     #endif /* !(UART_1_CY_SCBIP_V0 || UART_1_CY_SCBIP_V1) */
 337:Generated_Source\PSoC4/UART_1_UART.c **** 
 338:Generated_Source\PSoC4/UART_1_UART.c **** #else
 339:Generated_Source\PSoC4/UART_1_UART.c ****     #if (UART_1_UART_TX_PIN)
 340:Generated_Source\PSoC4/UART_1_UART.c ****          /* Set SCB UART to drive the output pin */
 341:Generated_Source\PSoC4/UART_1_UART.c ****         UART_1_SET_HSIOM_SEL(UART_1_TX_HSIOM_REG, UART_1_TX_HSIOM_MASK,
 135              		.loc 1 341 0
 136 0000 064A     		ldr	r2, .L5
 137 0002 1168     		ldr	r1, [r2]
 138 0004 064B     		ldr	r3, .L5+4
 139 0006 0B40     		ands	r3, r1
 140 0008 9021     		movs	r1, #144
 141 000a 0904     		lsls	r1, r1, #16
 142 000c 0B43     		orrs	r3, r1
 143 000e 1360     		str	r3, [r2]
 342:Generated_Source\PSoC4/UART_1_UART.c ****                                        UART_1_TX_HSIOM_POS, UART_1_TX_HSIOM_SEL_UART);
 343:Generated_Source\PSoC4/UART_1_UART.c ****     #endif /* (UART_1_UART_TX_PIN) */
 344:Generated_Source\PSoC4/UART_1_UART.c **** 
 345:Generated_Source\PSoC4/UART_1_UART.c ****     #if (UART_1_UART_RTS_PIN)
 346:Generated_Source\PSoC4/UART_1_UART.c ****         /* Set SCB UART to drive the output pin */
 347:Generated_Source\PSoC4/UART_1_UART.c ****         UART_1_SET_HSIOM_SEL(UART_1_RTS_HSIOM_REG, UART_1_RTS_HSIOM_MASK,
 348:Generated_Source\PSoC4/UART_1_UART.c ****                                        UART_1_RTS_HSIOM_POS, UART_1_RTS_HSIOM_SEL_UART);
 349:Generated_Source\PSoC4/UART_1_UART.c ****     #endif /* (UART_1_UART_RTS_PIN) */
 350:Generated_Source\PSoC4/UART_1_UART.c **** #endif /* (UART_1_SCB_MODE_UNCONFIG_CONST_CFG) */
 351:Generated_Source\PSoC4/UART_1_UART.c **** 
 352:Generated_Source\PSoC4/UART_1_UART.c ****     /* Restore TX interrupt sources. */
 353:Generated_Source\PSoC4/UART_1_UART.c ****     UART_1_SetTxInterruptMode(UART_1_IntrTxMask);
 144              		.loc 1 353 0
 145 0010 044B     		ldr	r3, .L5+8
 146 0012 1A88     		ldrh	r2, [r3]
 147 0014 044B     		ldr	r3, .L5+12
 148 0016 1A60     		str	r2, [r3]
 354:Generated_Source\PSoC4/UART_1_UART.c **** }
 149              		.loc 1 354 0
 150              		@ sp needed
 151 0018 7047     		bx	lr
 152              	.L6:
 153 001a C046     		.align	2
 154              	.L5:
 155 001c 00000240 		.word	1073872896
 156 0020 FFFF0FFF 		.word	-15728641
 157 0024 00000000 		.word	UART_1_IntrTxMask
 158 0028 880F2440 		.word	1076105096
 159              		.cfi_endproc
ARM GAS  C:\Users\Rafael\AppData\Local\Temp\ccmZOUTf.s 			page 10


 160              	.LFE3:
 161              		.size	UART_1_UartPostEnable, .-UART_1_UartPostEnable
 162              		.section	.text.UART_1_UartStop,"ax",%progbits
 163              		.align	2
 164              		.global	UART_1_UartStop
 165              		.code	16
 166              		.thumb_func
 167              		.type	UART_1_UartStop, %function
 168              	UART_1_UartStop:
 169              	.LFB4:
 355:Generated_Source\PSoC4/UART_1_UART.c **** 
 356:Generated_Source\PSoC4/UART_1_UART.c **** 
 357:Generated_Source\PSoC4/UART_1_UART.c **** /*******************************************************************************
 358:Generated_Source\PSoC4/UART_1_UART.c **** * Function Name: UART_1_UartStop
 359:Generated_Source\PSoC4/UART_1_UART.c **** ****************************************************************************//**
 360:Generated_Source\PSoC4/UART_1_UART.c **** *
 361:Generated_Source\PSoC4/UART_1_UART.c **** *  Changes the HSIOM settings for the UART output pins (TX and/or RTS) to keep
 362:Generated_Source\PSoC4/UART_1_UART.c **** *  them inactive after the block is disabled. The output pins are controlled by
 363:Generated_Source\PSoC4/UART_1_UART.c **** *  the GPIO data register. Also, the function disables the skip start feature
 364:Generated_Source\PSoC4/UART_1_UART.c **** *  to not cause it to trigger after the component is enabled.
 365:Generated_Source\PSoC4/UART_1_UART.c **** *
 366:Generated_Source\PSoC4/UART_1_UART.c **** *******************************************************************************/
 367:Generated_Source\PSoC4/UART_1_UART.c **** void UART_1_UartStop(void)
 368:Generated_Source\PSoC4/UART_1_UART.c **** {
 170              		.loc 1 368 0
 171              		.cfi_startproc
 172              		@ args = 0, pretend = 0, frame = 0
 173              		@ frame_needed = 0, uses_anonymous_args = 0
 174              		@ link register save eliminated.
 369:Generated_Source\PSoC4/UART_1_UART.c **** #if(UART_1_SCB_MODE_UNCONFIG_CONST_CFG)
 370:Generated_Source\PSoC4/UART_1_UART.c ****     #if (UART_1_TX_SCL_MISO_PIN)
 371:Generated_Source\PSoC4/UART_1_UART.c ****         if (UART_1_CHECK_TX_SCL_MISO_PIN_USED)
 372:Generated_Source\PSoC4/UART_1_UART.c ****         {
 373:Generated_Source\PSoC4/UART_1_UART.c ****             /* Set GPIO to drive output pin */
 374:Generated_Source\PSoC4/UART_1_UART.c ****             UART_1_SET_HSIOM_SEL(UART_1_TX_SCL_MISO_HSIOM_REG, UART_1_TX_SCL_MISO_HSIOM_MASK,
 375:Generated_Source\PSoC4/UART_1_UART.c ****                                            UART_1_TX_SCL_MISO_HSIOM_POS, UART_1_TX_SCL_MISO_HSIOM_S
 376:Generated_Source\PSoC4/UART_1_UART.c ****         }
 377:Generated_Source\PSoC4/UART_1_UART.c ****     #endif /* (UART_1_TX_SCL_MISO_PIN_PIN) */
 378:Generated_Source\PSoC4/UART_1_UART.c **** 
 379:Generated_Source\PSoC4/UART_1_UART.c ****     #if !(UART_1_CY_SCBIP_V0 || UART_1_CY_SCBIP_V1)
 380:Generated_Source\PSoC4/UART_1_UART.c ****         #if (UART_1_RTS_SS0_PIN)
 381:Generated_Source\PSoC4/UART_1_UART.c ****             if (UART_1_CHECK_RTS_SS0_PIN_USED)
 382:Generated_Source\PSoC4/UART_1_UART.c ****             {
 383:Generated_Source\PSoC4/UART_1_UART.c ****                 /* Set output pin state after block is disabled */
 384:Generated_Source\PSoC4/UART_1_UART.c ****                 UART_1_uart_rts_spi_ss0_Write(UART_1_GET_UART_RTS_INACTIVE);
 385:Generated_Source\PSoC4/UART_1_UART.c **** 
 386:Generated_Source\PSoC4/UART_1_UART.c ****                 /* Set GPIO to drive output pin */
 387:Generated_Source\PSoC4/UART_1_UART.c ****                 UART_1_SET_HSIOM_SEL(UART_1_RTS_SS0_HSIOM_REG, UART_1_RTS_SS0_HSIOM_MASK,
 388:Generated_Source\PSoC4/UART_1_UART.c ****                                                UART_1_RTS_SS0_HSIOM_POS, UART_1_RTS_SS0_HSIOM_SEL_G
 389:Generated_Source\PSoC4/UART_1_UART.c ****             }
 390:Generated_Source\PSoC4/UART_1_UART.c ****         #endif /* (UART_1_RTS_SS0_PIN) */
 391:Generated_Source\PSoC4/UART_1_UART.c ****     #endif /* !(UART_1_CY_SCBIP_V0 || UART_1_CY_SCBIP_V1) */
 392:Generated_Source\PSoC4/UART_1_UART.c **** 
 393:Generated_Source\PSoC4/UART_1_UART.c **** #else
 394:Generated_Source\PSoC4/UART_1_UART.c ****     #if (UART_1_UART_TX_PIN)
 395:Generated_Source\PSoC4/UART_1_UART.c ****         /* Set GPIO to drive output pin */
 396:Generated_Source\PSoC4/UART_1_UART.c ****         UART_1_SET_HSIOM_SEL(UART_1_TX_HSIOM_REG, UART_1_TX_HSIOM_MASK,
ARM GAS  C:\Users\Rafael\AppData\Local\Temp\ccmZOUTf.s 			page 11


 175              		.loc 1 396 0
 176 0000 064A     		ldr	r2, .L8
 177 0002 1168     		ldr	r1, [r2]
 178 0004 064B     		ldr	r3, .L8+4
 179 0006 0B40     		ands	r3, r1
 180 0008 1360     		str	r3, [r2]
 397:Generated_Source\PSoC4/UART_1_UART.c ****                                        UART_1_TX_HSIOM_POS, UART_1_TX_HSIOM_SEL_GPIO);
 398:Generated_Source\PSoC4/UART_1_UART.c ****     #endif /* (UART_1_UART_TX_PIN) */
 399:Generated_Source\PSoC4/UART_1_UART.c **** 
 400:Generated_Source\PSoC4/UART_1_UART.c ****     #if (UART_1_UART_RTS_PIN)
 401:Generated_Source\PSoC4/UART_1_UART.c ****         /* Set output pin state after block is disabled */
 402:Generated_Source\PSoC4/UART_1_UART.c ****         UART_1_rts_Write(UART_1_GET_UART_RTS_INACTIVE);
 403:Generated_Source\PSoC4/UART_1_UART.c **** 
 404:Generated_Source\PSoC4/UART_1_UART.c ****         /* Set GPIO to drive output pin */
 405:Generated_Source\PSoC4/UART_1_UART.c ****         UART_1_SET_HSIOM_SEL(UART_1_RTS_HSIOM_REG, UART_1_RTS_HSIOM_MASK,
 406:Generated_Source\PSoC4/UART_1_UART.c ****                                        UART_1_RTS_HSIOM_POS, UART_1_RTS_HSIOM_SEL_GPIO);
 407:Generated_Source\PSoC4/UART_1_UART.c ****     #endif /* (UART_1_UART_RTS_PIN) */
 408:Generated_Source\PSoC4/UART_1_UART.c **** 
 409:Generated_Source\PSoC4/UART_1_UART.c **** #endif /* (UART_1_SCB_MODE_UNCONFIG_CONST_CFG) */
 410:Generated_Source\PSoC4/UART_1_UART.c **** 
 411:Generated_Source\PSoC4/UART_1_UART.c **** #if (UART_1_UART_WAKE_ENABLE_CONST)
 412:Generated_Source\PSoC4/UART_1_UART.c ****     /* Disable skip start feature used for wakeup */
 413:Generated_Source\PSoC4/UART_1_UART.c ****     UART_1_UART_RX_CTRL_REG &= (uint32) ~UART_1_UART_RX_CTRL_SKIP_START;
 414:Generated_Source\PSoC4/UART_1_UART.c **** #endif /* (UART_1_UART_WAKE_ENABLE_CONST) */
 415:Generated_Source\PSoC4/UART_1_UART.c **** 
 416:Generated_Source\PSoC4/UART_1_UART.c ****     /* Store TX interrupt sources (exclude level triggered). */
 417:Generated_Source\PSoC4/UART_1_UART.c ****     UART_1_IntrTxMask = LO16(UART_1_GetTxInterruptMode() & UART_1_INTR_UART_TX_RESTORE);
 181              		.loc 1 417 0
 182 000a 064B     		ldr	r3, .L8+8
 183 000c 1A68     		ldr	r2, [r3]
 184 000e E423     		movs	r3, #228
 185 0010 DB00     		lsls	r3, r3, #3
 186 0012 1340     		ands	r3, r2
 187 0014 044A     		ldr	r2, .L8+12
 188 0016 1380     		strh	r3, [r2]
 418:Generated_Source\PSoC4/UART_1_UART.c **** }
 189              		.loc 1 418 0
 190              		@ sp needed
 191 0018 7047     		bx	lr
 192              	.L9:
 193 001a C046     		.align	2
 194              	.L8:
 195 001c 00000240 		.word	1073872896
 196 0020 FFFF0FFF 		.word	-15728641
 197 0024 880F2440 		.word	1076105096
 198 0028 00000000 		.word	UART_1_IntrTxMask
 199              		.cfi_endproc
 200              	.LFE4:
 201              		.size	UART_1_UartStop, .-UART_1_UartStop
 202              		.section	.text.UART_1_UartSetRxAddress,"ax",%progbits
 203              		.align	2
 204              		.global	UART_1_UartSetRxAddress
 205              		.code	16
 206              		.thumb_func
 207              		.type	UART_1_UartSetRxAddress, %function
 208              	UART_1_UartSetRxAddress:
 209              	.LFB5:
ARM GAS  C:\Users\Rafael\AppData\Local\Temp\ccmZOUTf.s 			page 12


 419:Generated_Source\PSoC4/UART_1_UART.c **** 
 420:Generated_Source\PSoC4/UART_1_UART.c **** 
 421:Generated_Source\PSoC4/UART_1_UART.c **** /*******************************************************************************
 422:Generated_Source\PSoC4/UART_1_UART.c **** * Function Name: UART_1_UartSetRxAddress
 423:Generated_Source\PSoC4/UART_1_UART.c **** ****************************************************************************//**
 424:Generated_Source\PSoC4/UART_1_UART.c **** *
 425:Generated_Source\PSoC4/UART_1_UART.c **** *  Sets the hardware detectable receiver address for the UART in the
 426:Generated_Source\PSoC4/UART_1_UART.c **** *  Multiprocessor mode.
 427:Generated_Source\PSoC4/UART_1_UART.c **** *
 428:Generated_Source\PSoC4/UART_1_UART.c **** *  \param address: Address for hardware address detection.
 429:Generated_Source\PSoC4/UART_1_UART.c **** *
 430:Generated_Source\PSoC4/UART_1_UART.c **** *******************************************************************************/
 431:Generated_Source\PSoC4/UART_1_UART.c **** void UART_1_UartSetRxAddress(uint32 address)
 432:Generated_Source\PSoC4/UART_1_UART.c **** {
 210              		.loc 1 432 0
 211              		.cfi_startproc
 212              		@ args = 0, pretend = 0, frame = 0
 213              		@ frame_needed = 0, uses_anonymous_args = 0
 214              		@ link register save eliminated.
 215              	.LVL0:
 433:Generated_Source\PSoC4/UART_1_UART.c ****      uint32 matchReg;
 434:Generated_Source\PSoC4/UART_1_UART.c **** 
 435:Generated_Source\PSoC4/UART_1_UART.c ****     matchReg = UART_1_RX_MATCH_REG;
 216              		.loc 1 435 0
 217 0000 034A     		ldr	r2, .L11
 218 0002 1368     		ldr	r3, [r2]
 219              	.LVL1:
 436:Generated_Source\PSoC4/UART_1_UART.c **** 
 437:Generated_Source\PSoC4/UART_1_UART.c ****     matchReg &= ((uint32) ~UART_1_RX_MATCH_ADDR_MASK); /* Clear address bits */
 220              		.loc 1 437 0
 221 0004 FF21     		movs	r1, #255
 222 0006 8B43     		bics	r3, r1
 223              	.LVL2:
 438:Generated_Source\PSoC4/UART_1_UART.c ****     matchReg |= ((uint32)  (address & UART_1_RX_MATCH_ADDR_MASK)); /* Set address  */
 224              		.loc 1 438 0
 225 0008 0840     		ands	r0, r1
 226              	.LVL3:
 227 000a 1843     		orrs	r0, r3
 228              	.LVL4:
 439:Generated_Source\PSoC4/UART_1_UART.c **** 
 440:Generated_Source\PSoC4/UART_1_UART.c ****     UART_1_RX_MATCH_REG = matchReg;
 229              		.loc 1 440 0
 230 000c 1060     		str	r0, [r2]
 441:Generated_Source\PSoC4/UART_1_UART.c **** }
 231              		.loc 1 441 0
 232              		@ sp needed
 233 000e 7047     		bx	lr
 234              	.L12:
 235              		.align	2
 236              	.L11:
 237 0010 10032440 		.word	1076101904
 238              		.cfi_endproc
 239              	.LFE5:
 240              		.size	UART_1_UartSetRxAddress, .-UART_1_UartSetRxAddress
 241              		.section	.text.UART_1_UartSetRxAddressMask,"ax",%progbits
 242              		.align	2
 243              		.global	UART_1_UartSetRxAddressMask
ARM GAS  C:\Users\Rafael\AppData\Local\Temp\ccmZOUTf.s 			page 13


 244              		.code	16
 245              		.thumb_func
 246              		.type	UART_1_UartSetRxAddressMask, %function
 247              	UART_1_UartSetRxAddressMask:
 248              	.LFB6:
 442:Generated_Source\PSoC4/UART_1_UART.c **** 
 443:Generated_Source\PSoC4/UART_1_UART.c **** 
 444:Generated_Source\PSoC4/UART_1_UART.c **** /*******************************************************************************
 445:Generated_Source\PSoC4/UART_1_UART.c **** * Function Name: UART_1_UartSetRxAddressMask
 446:Generated_Source\PSoC4/UART_1_UART.c **** ****************************************************************************//**
 447:Generated_Source\PSoC4/UART_1_UART.c **** *
 448:Generated_Source\PSoC4/UART_1_UART.c **** *  Sets the hardware address mask for the UART in the Multiprocessor mode.
 449:Generated_Source\PSoC4/UART_1_UART.c **** *
 450:Generated_Source\PSoC4/UART_1_UART.c **** *  \param addressMask: Address mask.
 451:Generated_Source\PSoC4/UART_1_UART.c **** *   - Bit value 0 – excludes bit from address comparison.
 452:Generated_Source\PSoC4/UART_1_UART.c **** *   - Bit value 1 – the bit needs to match with the corresponding bit
 453:Generated_Source\PSoC4/UART_1_UART.c **** *     of the address.
 454:Generated_Source\PSoC4/UART_1_UART.c **** *
 455:Generated_Source\PSoC4/UART_1_UART.c **** *******************************************************************************/
 456:Generated_Source\PSoC4/UART_1_UART.c **** void UART_1_UartSetRxAddressMask(uint32 addressMask)
 457:Generated_Source\PSoC4/UART_1_UART.c **** {
 249              		.loc 1 457 0
 250              		.cfi_startproc
 251              		@ args = 0, pretend = 0, frame = 0
 252              		@ frame_needed = 0, uses_anonymous_args = 0
 253              		@ link register save eliminated.
 254              	.LVL5:
 458:Generated_Source\PSoC4/UART_1_UART.c ****     uint32 matchReg;
 459:Generated_Source\PSoC4/UART_1_UART.c **** 
 460:Generated_Source\PSoC4/UART_1_UART.c ****     matchReg = UART_1_RX_MATCH_REG;
 255              		.loc 1 460 0
 256 0000 034A     		ldr	r2, .L14
 257 0002 1168     		ldr	r1, [r2]
 258              	.LVL6:
 461:Generated_Source\PSoC4/UART_1_UART.c **** 
 462:Generated_Source\PSoC4/UART_1_UART.c ****     matchReg &= ((uint32) ~UART_1_RX_MATCH_MASK_MASK); /* Clear address mask bits */
 259              		.loc 1 462 0
 260 0004 034B     		ldr	r3, .L14+4
 261 0006 0B40     		ands	r3, r1
 262              	.LVL7:
 463:Generated_Source\PSoC4/UART_1_UART.c ****     matchReg |= ((uint32) (addressMask << UART_1_RX_MATCH_MASK_POS));
 263              		.loc 1 463 0
 264 0008 0004     		lsls	r0, r0, #16
 265              	.LVL8:
 266 000a 1843     		orrs	r0, r3
 267              	.LVL9:
 464:Generated_Source\PSoC4/UART_1_UART.c **** 
 465:Generated_Source\PSoC4/UART_1_UART.c ****     UART_1_RX_MATCH_REG = matchReg;
 268              		.loc 1 465 0
 269 000c 1060     		str	r0, [r2]
 466:Generated_Source\PSoC4/UART_1_UART.c **** }
 270              		.loc 1 466 0
 271              		@ sp needed
 272 000e 7047     		bx	lr
 273              	.L15:
 274              		.align	2
 275              	.L14:
ARM GAS  C:\Users\Rafael\AppData\Local\Temp\ccmZOUTf.s 			page 14


 276 0010 10032440 		.word	1076101904
 277 0014 FFFF00FF 		.word	-16711681
 278              		.cfi_endproc
 279              	.LFE6:
 280              		.size	UART_1_UartSetRxAddressMask, .-UART_1_UartSetRxAddressMask
 281              		.section	.text.UART_1_UartGetChar,"ax",%progbits
 282              		.align	2
 283              		.global	UART_1_UartGetChar
 284              		.code	16
 285              		.thumb_func
 286              		.type	UART_1_UartGetChar, %function
 287              	UART_1_UartGetChar:
 288              	.LFB7:
 467:Generated_Source\PSoC4/UART_1_UART.c **** 
 468:Generated_Source\PSoC4/UART_1_UART.c **** 
 469:Generated_Source\PSoC4/UART_1_UART.c **** #if(UART_1_UART_RX_DIRECTION)
 470:Generated_Source\PSoC4/UART_1_UART.c ****     /*******************************************************************************
 471:Generated_Source\PSoC4/UART_1_UART.c ****     * Function Name: UART_1_UartGetChar
 472:Generated_Source\PSoC4/UART_1_UART.c ****     ****************************************************************************//**
 473:Generated_Source\PSoC4/UART_1_UART.c ****     *
 474:Generated_Source\PSoC4/UART_1_UART.c ****     *  Retrieves next data element from receive buffer.
 475:Generated_Source\PSoC4/UART_1_UART.c ****     *  This function is designed for ASCII characters and returns a char where
 476:Generated_Source\PSoC4/UART_1_UART.c ****     *  1 to 255 are valid characters and 0 indicates an error occurred or no data
 477:Generated_Source\PSoC4/UART_1_UART.c ****     *  is present.
 478:Generated_Source\PSoC4/UART_1_UART.c ****     *  - RX software buffer is disabled: Returns data element retrieved from RX
 479:Generated_Source\PSoC4/UART_1_UART.c ****     *    FIFO.
 480:Generated_Source\PSoC4/UART_1_UART.c ****     *  - RX software buffer is enabled: Returns data element from the software
 481:Generated_Source\PSoC4/UART_1_UART.c ****     *    receive buffer.
 482:Generated_Source\PSoC4/UART_1_UART.c ****     *
 483:Generated_Source\PSoC4/UART_1_UART.c ****     *  \return
 484:Generated_Source\PSoC4/UART_1_UART.c ****     *   Next data element from the receive buffer. ASCII character values from
 485:Generated_Source\PSoC4/UART_1_UART.c ****     *   1 to 255 are valid. A returned zero signifies an error condition or no
 486:Generated_Source\PSoC4/UART_1_UART.c ****     *   data available.
 487:Generated_Source\PSoC4/UART_1_UART.c ****     *
 488:Generated_Source\PSoC4/UART_1_UART.c ****     *  \sideeffect
 489:Generated_Source\PSoC4/UART_1_UART.c ****     *   The errors bits may not correspond with reading characters due to
 490:Generated_Source\PSoC4/UART_1_UART.c ****     *   RX FIFO and software buffer usage.
 491:Generated_Source\PSoC4/UART_1_UART.c ****     *   RX software buffer is enabled: The internal software buffer overflow
 492:Generated_Source\PSoC4/UART_1_UART.c ****     *   is not treated as an error condition.
 493:Generated_Source\PSoC4/UART_1_UART.c ****     *   Check UART_1_rxBufferOverflow to capture that error condition.
 494:Generated_Source\PSoC4/UART_1_UART.c ****     *
 495:Generated_Source\PSoC4/UART_1_UART.c ****     *******************************************************************************/
 496:Generated_Source\PSoC4/UART_1_UART.c ****     uint32 UART_1_UartGetChar(void)
 497:Generated_Source\PSoC4/UART_1_UART.c ****     {
 289              		.loc 1 497 0
 290              		.cfi_startproc
 291              		@ args = 0, pretend = 0, frame = 0
 292              		@ frame_needed = 0, uses_anonymous_args = 0
 293 0000 10B5     		push	{r4, lr}
 294              		.cfi_def_cfa_offset 8
 295              		.cfi_offset 4, -8
 296              		.cfi_offset 14, -4
 297              	.LVL10:
 498:Generated_Source\PSoC4/UART_1_UART.c ****         uint32 rxData = 0u;
 499:Generated_Source\PSoC4/UART_1_UART.c **** 
 500:Generated_Source\PSoC4/UART_1_UART.c ****         /* Reads data only if there is data to read */
 501:Generated_Source\PSoC4/UART_1_UART.c ****         if (0u != UART_1_SpiUartGetRxBufferSize())
ARM GAS  C:\Users\Rafael\AppData\Local\Temp\ccmZOUTf.s 			page 15


 298              		.loc 1 501 0
 299 0002 FFF7FEFF 		bl	UART_1_SpiUartGetRxBufferSize
 300              	.LVL11:
 301 0006 0028     		cmp	r0, #0
 302 0008 02D0     		beq	.L19
 502:Generated_Source\PSoC4/UART_1_UART.c ****         {
 503:Generated_Source\PSoC4/UART_1_UART.c ****             rxData = UART_1_SpiUartReadRxData();
 303              		.loc 1 503 0
 304 000a FFF7FEFF 		bl	UART_1_SpiUartReadRxData
 305              	.LVL12:
 306 000e 00E0     		b	.L17
 307              	.LVL13:
 308              	.L19:
 498:Generated_Source\PSoC4/UART_1_UART.c ****         uint32 rxData = 0u;
 309              		.loc 1 498 0
 310 0010 0020     		movs	r0, #0
 311              	.LVL14:
 312              	.L17:
 504:Generated_Source\PSoC4/UART_1_UART.c ****         }
 505:Generated_Source\PSoC4/UART_1_UART.c **** 
 506:Generated_Source\PSoC4/UART_1_UART.c ****         if (UART_1_CHECK_INTR_RX(UART_1_INTR_RX_ERR))
 313              		.loc 1 506 0
 314 0012 054B     		ldr	r3, .L20
 315 0014 1A68     		ldr	r2, [r3]
 316 0016 D823     		movs	r3, #216
 317 0018 9B00     		lsls	r3, r3, #2
 318 001a 1A42     		tst	r2, r3
 319 001c 03D0     		beq	.L18
 320              	.LVL15:
 507:Generated_Source\PSoC4/UART_1_UART.c ****         {
 508:Generated_Source\PSoC4/UART_1_UART.c ****             rxData = 0u; /* Error occurred: returns zero */
 509:Generated_Source\PSoC4/UART_1_UART.c ****             UART_1_ClearRxInterruptSource(UART_1_INTR_RX_ERR);
 321              		.loc 1 509 0
 322 001e 1A00     		movs	r2, r3
 323 0020 014B     		ldr	r3, .L20
 324 0022 1A60     		str	r2, [r3]
 508:Generated_Source\PSoC4/UART_1_UART.c ****             UART_1_ClearRxInterruptSource(UART_1_INTR_RX_ERR);
 325              		.loc 1 508 0
 326 0024 0020     		movs	r0, #0
 327              	.LVL16:
 328              	.L18:
 510:Generated_Source\PSoC4/UART_1_UART.c ****         }
 511:Generated_Source\PSoC4/UART_1_UART.c **** 
 512:Generated_Source\PSoC4/UART_1_UART.c ****         return (rxData);
 513:Generated_Source\PSoC4/UART_1_UART.c ****     }
 329              		.loc 1 513 0
 330              		@ sp needed
 331 0026 10BD     		pop	{r4, pc}
 332              	.L21:
 333              		.align	2
 334              	.L20:
 335 0028 C00F2440 		.word	1076105152
 336              		.cfi_endproc
 337              	.LFE7:
 338              		.size	UART_1_UartGetChar, .-UART_1_UartGetChar
 339              		.section	.text.UART_1_UartGetByte,"ax",%progbits
 340              		.align	2
ARM GAS  C:\Users\Rafael\AppData\Local\Temp\ccmZOUTf.s 			page 16


 341              		.global	UART_1_UartGetByte
 342              		.code	16
 343              		.thumb_func
 344              		.type	UART_1_UartGetByte, %function
 345              	UART_1_UartGetByte:
 346              	.LFB8:
 514:Generated_Source\PSoC4/UART_1_UART.c **** 
 515:Generated_Source\PSoC4/UART_1_UART.c **** 
 516:Generated_Source\PSoC4/UART_1_UART.c ****     /*******************************************************************************
 517:Generated_Source\PSoC4/UART_1_UART.c ****     * Function Name: UART_1_UartGetByte
 518:Generated_Source\PSoC4/UART_1_UART.c ****     ****************************************************************************//**
 519:Generated_Source\PSoC4/UART_1_UART.c ****     *
 520:Generated_Source\PSoC4/UART_1_UART.c ****     *  Retrieves the next data element from the receive buffer, returns the
 521:Generated_Source\PSoC4/UART_1_UART.c ****     *  received byte and error condition.
 522:Generated_Source\PSoC4/UART_1_UART.c ****     *   - The RX software buffer is disabled: returns the data element retrieved
 523:Generated_Source\PSoC4/UART_1_UART.c ****     *     from the RX FIFO. Undefined data will be returned if the RX FIFO is
 524:Generated_Source\PSoC4/UART_1_UART.c ****     *     empty.
 525:Generated_Source\PSoC4/UART_1_UART.c ****     *   - The RX software buffer is enabled: returns data element from the
 526:Generated_Source\PSoC4/UART_1_UART.c ****     *     software receive buffer.
 527:Generated_Source\PSoC4/UART_1_UART.c ****     *
 528:Generated_Source\PSoC4/UART_1_UART.c ****     *  \return
 529:Generated_Source\PSoC4/UART_1_UART.c ****     *   Bits 7-0 contain the next data element from the receive buffer and
 530:Generated_Source\PSoC4/UART_1_UART.c ****     *   other bits contain the error condition.
 531:Generated_Source\PSoC4/UART_1_UART.c ****     *   - UART_1_UART_RX_OVERFLOW - Attempt to write to a full
 532:Generated_Source\PSoC4/UART_1_UART.c ****     *     receiver FIFO.
 533:Generated_Source\PSoC4/UART_1_UART.c ****     *   - UART_1_UART_RX_UNDERFLOW	Attempt to read from an empty
 534:Generated_Source\PSoC4/UART_1_UART.c ****     *     receiver FIFO.
 535:Generated_Source\PSoC4/UART_1_UART.c ****     *   - UART_1_UART_RX_FRAME_ERROR - UART framing error detected.
 536:Generated_Source\PSoC4/UART_1_UART.c ****     *   - UART_1_UART_RX_PARITY_ERROR - UART parity error detected.
 537:Generated_Source\PSoC4/UART_1_UART.c ****     *
 538:Generated_Source\PSoC4/UART_1_UART.c ****     *  \sideeffect
 539:Generated_Source\PSoC4/UART_1_UART.c ****     *   The errors bits may not correspond with reading characters due to
 540:Generated_Source\PSoC4/UART_1_UART.c ****     *   RX FIFO and software buffer usage.
 541:Generated_Source\PSoC4/UART_1_UART.c ****     *   RX software buffer is enabled: The internal software buffer overflow
 542:Generated_Source\PSoC4/UART_1_UART.c ****     *   is not treated as an error condition.
 543:Generated_Source\PSoC4/UART_1_UART.c ****     *   Check UART_1_rxBufferOverflow to capture that error condition.
 544:Generated_Source\PSoC4/UART_1_UART.c ****     *
 545:Generated_Source\PSoC4/UART_1_UART.c ****     *******************************************************************************/
 546:Generated_Source\PSoC4/UART_1_UART.c ****     uint32 UART_1_UartGetByte(void)
 547:Generated_Source\PSoC4/UART_1_UART.c ****     {
 347              		.loc 1 547 0
 348              		.cfi_startproc
 349              		@ args = 0, pretend = 0, frame = 0
 350              		@ frame_needed = 0, uses_anonymous_args = 0
 351 0000 10B5     		push	{r4, lr}
 352              		.cfi_def_cfa_offset 8
 353              		.cfi_offset 4, -8
 354              		.cfi_offset 14, -4
 548:Generated_Source\PSoC4/UART_1_UART.c ****         uint32 rxData;
 549:Generated_Source\PSoC4/UART_1_UART.c ****         uint32 tmpStatus;
 550:Generated_Source\PSoC4/UART_1_UART.c **** 
 551:Generated_Source\PSoC4/UART_1_UART.c ****         #if (UART_1_CHECK_RX_SW_BUFFER)
 552:Generated_Source\PSoC4/UART_1_UART.c ****         {
 553:Generated_Source\PSoC4/UART_1_UART.c ****             UART_1_DisableInt();
 554:Generated_Source\PSoC4/UART_1_UART.c ****         }
 555:Generated_Source\PSoC4/UART_1_UART.c ****         #endif
 556:Generated_Source\PSoC4/UART_1_UART.c **** 
ARM GAS  C:\Users\Rafael\AppData\Local\Temp\ccmZOUTf.s 			page 17


 557:Generated_Source\PSoC4/UART_1_UART.c ****         if (0u != UART_1_SpiUartGetRxBufferSize())
 355              		.loc 1 557 0
 356 0002 FFF7FEFF 		bl	UART_1_SpiUartGetRxBufferSize
 357              	.LVL17:
 358 0006 0028     		cmp	r0, #0
 359 0008 02D0     		beq	.L23
 558:Generated_Source\PSoC4/UART_1_UART.c ****         {
 559:Generated_Source\PSoC4/UART_1_UART.c ****             /* Enables interrupt to receive more bytes: at least one byte is in
 560:Generated_Source\PSoC4/UART_1_UART.c ****             * buffer.
 561:Generated_Source\PSoC4/UART_1_UART.c ****             */
 562:Generated_Source\PSoC4/UART_1_UART.c ****             #if (UART_1_CHECK_RX_SW_BUFFER)
 563:Generated_Source\PSoC4/UART_1_UART.c ****             {
 564:Generated_Source\PSoC4/UART_1_UART.c ****                 UART_1_EnableInt();
 565:Generated_Source\PSoC4/UART_1_UART.c ****             }
 566:Generated_Source\PSoC4/UART_1_UART.c ****             #endif
 567:Generated_Source\PSoC4/UART_1_UART.c **** 
 568:Generated_Source\PSoC4/UART_1_UART.c ****             /* Get received byte */
 569:Generated_Source\PSoC4/UART_1_UART.c ****             rxData = UART_1_SpiUartReadRxData();
 360              		.loc 1 569 0
 361 000a FFF7FEFF 		bl	UART_1_SpiUartReadRxData
 362              	.LVL18:
 363 000e 01E0     		b	.L24
 364              	.LVL19:
 365              	.L23:
 570:Generated_Source\PSoC4/UART_1_UART.c ****         }
 571:Generated_Source\PSoC4/UART_1_UART.c ****         else
 572:Generated_Source\PSoC4/UART_1_UART.c ****         {
 573:Generated_Source\PSoC4/UART_1_UART.c ****             /* Reads a byte directly from RX FIFO: underflow is raised in the
 574:Generated_Source\PSoC4/UART_1_UART.c ****             * case of empty. Otherwise the first received byte will be read.
 575:Generated_Source\PSoC4/UART_1_UART.c ****             */
 576:Generated_Source\PSoC4/UART_1_UART.c ****             rxData = UART_1_RX_FIFO_RD_REG;
 366              		.loc 1 576 0
 367 0010 064B     		ldr	r3, .L25
 368 0012 1868     		ldr	r0, [r3]
 369              	.LVL20:
 370              	.L24:
 577:Generated_Source\PSoC4/UART_1_UART.c **** 
 578:Generated_Source\PSoC4/UART_1_UART.c **** 
 579:Generated_Source\PSoC4/UART_1_UART.c ****             /* Enables interrupt to receive more bytes. */
 580:Generated_Source\PSoC4/UART_1_UART.c ****             #if (UART_1_CHECK_RX_SW_BUFFER)
 581:Generated_Source\PSoC4/UART_1_UART.c ****             {
 582:Generated_Source\PSoC4/UART_1_UART.c **** 
 583:Generated_Source\PSoC4/UART_1_UART.c ****                 /* The byte has been read from RX FIFO. Clear RX interrupt to
 584:Generated_Source\PSoC4/UART_1_UART.c ****                 * not involve interrupt handler when RX FIFO is empty.
 585:Generated_Source\PSoC4/UART_1_UART.c ****                 */
 586:Generated_Source\PSoC4/UART_1_UART.c ****                 UART_1_ClearRxInterruptSource(UART_1_INTR_RX_NOT_EMPTY);
 587:Generated_Source\PSoC4/UART_1_UART.c **** 
 588:Generated_Source\PSoC4/UART_1_UART.c ****                 UART_1_EnableInt();
 589:Generated_Source\PSoC4/UART_1_UART.c ****             }
 590:Generated_Source\PSoC4/UART_1_UART.c ****             #endif
 591:Generated_Source\PSoC4/UART_1_UART.c ****         }
 592:Generated_Source\PSoC4/UART_1_UART.c **** 
 593:Generated_Source\PSoC4/UART_1_UART.c ****         /* Get and clear RX error mask */
 594:Generated_Source\PSoC4/UART_1_UART.c ****         tmpStatus = (UART_1_GetRxInterruptSource() & UART_1_INTR_RX_ERR);
 371              		.loc 1 594 0
 372 0014 064A     		ldr	r2, .L25+4
 373 0016 1368     		ldr	r3, [r2]
ARM GAS  C:\Users\Rafael\AppData\Local\Temp\ccmZOUTf.s 			page 18


 374              	.LVL21:
 595:Generated_Source\PSoC4/UART_1_UART.c ****         UART_1_ClearRxInterruptSource(UART_1_INTR_RX_ERR);
 375              		.loc 1 595 0
 376 0018 D821     		movs	r1, #216
 377 001a 8900     		lsls	r1, r1, #2
 378 001c 1160     		str	r1, [r2]
 596:Generated_Source\PSoC4/UART_1_UART.c **** 
 597:Generated_Source\PSoC4/UART_1_UART.c ****         /* Puts together data and error status:
 598:Generated_Source\PSoC4/UART_1_UART.c ****         * MP mode and accept address: 9th bit is set to notify mark.
 599:Generated_Source\PSoC4/UART_1_UART.c ****         */
 600:Generated_Source\PSoC4/UART_1_UART.c ****         rxData |= ((uint32) (tmpStatus << 8u));
 379              		.loc 1 600 0
 380 001e 1B02     		lsls	r3, r3, #8
 381              	.LVL22:
 382 0020 D822     		movs	r2, #216
 383 0022 9202     		lsls	r2, r2, #10
 384 0024 1340     		ands	r3, r2
 385 0026 1843     		orrs	r0, r3
 386              	.LVL23:
 601:Generated_Source\PSoC4/UART_1_UART.c **** 
 602:Generated_Source\PSoC4/UART_1_UART.c ****         return (rxData);
 603:Generated_Source\PSoC4/UART_1_UART.c ****     }
 387              		.loc 1 603 0
 388              		@ sp needed
 389 0028 10BD     		pop	{r4, pc}
 390              	.L26:
 391 002a C046     		.align	2
 392              	.L25:
 393 002c 40032440 		.word	1076101952
 394 0030 C00F2440 		.word	1076105152
 395              		.cfi_endproc
 396              	.LFE8:
 397              		.size	UART_1_UartGetByte, .-UART_1_UartGetByte
 398              		.section	.text.UART_1_UartSetRtsPolarity,"ax",%progbits
 399              		.align	2
 400              		.global	UART_1_UartSetRtsPolarity
 401              		.code	16
 402              		.thumb_func
 403              		.type	UART_1_UartSetRtsPolarity, %function
 404              	UART_1_UartSetRtsPolarity:
 405              	.LFB9:
 604:Generated_Source\PSoC4/UART_1_UART.c **** 
 605:Generated_Source\PSoC4/UART_1_UART.c **** 
 606:Generated_Source\PSoC4/UART_1_UART.c ****     #if !(UART_1_CY_SCBIP_V0 || UART_1_CY_SCBIP_V1)
 607:Generated_Source\PSoC4/UART_1_UART.c ****         /*******************************************************************************
 608:Generated_Source\PSoC4/UART_1_UART.c ****         * Function Name: UART_1_UartSetRtsPolarity
 609:Generated_Source\PSoC4/UART_1_UART.c ****         ****************************************************************************//**
 610:Generated_Source\PSoC4/UART_1_UART.c ****         *
 611:Generated_Source\PSoC4/UART_1_UART.c ****         *  Sets active polarity of RTS output signal.
 612:Generated_Source\PSoC4/UART_1_UART.c ****         *  Only available for PSoC 4100 BLE / PSoC 4200 BLE / PSoC 4100M / PSoC 4200M /
 613:Generated_Source\PSoC4/UART_1_UART.c ****         *  PSoC 4200L / PSoC 4000S / PSoC 4100S / PSoC Analog Coprocessor devices.
 614:Generated_Source\PSoC4/UART_1_UART.c ****         *
 615:Generated_Source\PSoC4/UART_1_UART.c ****         *  \param polarity: Active polarity of RTS output signal.
 616:Generated_Source\PSoC4/UART_1_UART.c ****         *   - UART_1_UART_RTS_ACTIVE_LOW  - RTS signal is active low.
 617:Generated_Source\PSoC4/UART_1_UART.c ****         *   - UART_1_UART_RTS_ACTIVE_HIGH - RTS signal is active high.
 618:Generated_Source\PSoC4/UART_1_UART.c ****         *
 619:Generated_Source\PSoC4/UART_1_UART.c ****         *******************************************************************************/
ARM GAS  C:\Users\Rafael\AppData\Local\Temp\ccmZOUTf.s 			page 19


 620:Generated_Source\PSoC4/UART_1_UART.c ****         void UART_1_UartSetRtsPolarity(uint32 polarity)
 621:Generated_Source\PSoC4/UART_1_UART.c ****         {
 406              		.loc 1 621 0
 407              		.cfi_startproc
 408              		@ args = 0, pretend = 0, frame = 0
 409              		@ frame_needed = 0, uses_anonymous_args = 0
 410              		@ link register save eliminated.
 411              	.LVL24:
 622:Generated_Source\PSoC4/UART_1_UART.c ****             if(0u != polarity)
 412              		.loc 1 622 0
 413 0000 0028     		cmp	r0, #0
 414 0002 06D0     		beq	.L28
 623:Generated_Source\PSoC4/UART_1_UART.c ****             {
 624:Generated_Source\PSoC4/UART_1_UART.c ****                 UART_1_UART_FLOW_CTRL_REG |= (uint32)  UART_1_UART_FLOW_CTRL_RTS_POLARITY;
 415              		.loc 1 624 0
 416 0004 064A     		ldr	r2, .L30
 417 0006 1368     		ldr	r3, [r2]
 418 0008 8021     		movs	r1, #128
 419 000a 4902     		lsls	r1, r1, #9
 420 000c 0B43     		orrs	r3, r1
 421 000e 1360     		str	r3, [r2]
 422 0010 04E0     		b	.L27
 423              	.L28:
 625:Generated_Source\PSoC4/UART_1_UART.c ****             }
 626:Generated_Source\PSoC4/UART_1_UART.c ****             else
 627:Generated_Source\PSoC4/UART_1_UART.c ****             {
 628:Generated_Source\PSoC4/UART_1_UART.c ****                 UART_1_UART_FLOW_CTRL_REG &= (uint32) ~UART_1_UART_FLOW_CTRL_RTS_POLARITY;
 424              		.loc 1 628 0
 425 0012 034A     		ldr	r2, .L30
 426 0014 1168     		ldr	r1, [r2]
 427 0016 034B     		ldr	r3, .L30+4
 428 0018 0B40     		ands	r3, r1
 429 001a 1360     		str	r3, [r2]
 430              	.L27:
 629:Generated_Source\PSoC4/UART_1_UART.c ****             }
 630:Generated_Source\PSoC4/UART_1_UART.c ****         }
 431              		.loc 1 630 0
 432              		@ sp needed
 433 001c 7047     		bx	lr
 434              	.L31:
 435 001e C046     		.align	2
 436              	.L30:
 437 0020 50002440 		.word	1076101200
 438 0024 FFFFFEFF 		.word	-65537
 439              		.cfi_endproc
 440              	.LFE9:
 441              		.size	UART_1_UartSetRtsPolarity, .-UART_1_UartSetRtsPolarity
 442              		.section	.text.UART_1_UartSetRtsFifoLevel,"ax",%progbits
 443              		.align	2
 444              		.global	UART_1_UartSetRtsFifoLevel
 445              		.code	16
 446              		.thumb_func
 447              		.type	UART_1_UartSetRtsFifoLevel, %function
 448              	UART_1_UartSetRtsFifoLevel:
 449              	.LFB10:
 631:Generated_Source\PSoC4/UART_1_UART.c **** 
 632:Generated_Source\PSoC4/UART_1_UART.c **** 
ARM GAS  C:\Users\Rafael\AppData\Local\Temp\ccmZOUTf.s 			page 20


 633:Generated_Source\PSoC4/UART_1_UART.c ****         /*******************************************************************************
 634:Generated_Source\PSoC4/UART_1_UART.c ****         * Function Name: UART_1_UartSetRtsFifoLevel
 635:Generated_Source\PSoC4/UART_1_UART.c ****         ****************************************************************************//**
 636:Generated_Source\PSoC4/UART_1_UART.c ****         *
 637:Generated_Source\PSoC4/UART_1_UART.c ****         *  Sets level in the RX FIFO for RTS signal activation.
 638:Generated_Source\PSoC4/UART_1_UART.c ****         *  While the RX FIFO has fewer entries than the RX FIFO level the RTS signal
 639:Generated_Source\PSoC4/UART_1_UART.c ****         *  remains active, otherwise the RTS signal becomes inactive.
 640:Generated_Source\PSoC4/UART_1_UART.c ****         *  Only available for PSoC 4100 BLE / PSoC 4200 BLE / PSoC 4100M / PSoC 4200M /
 641:Generated_Source\PSoC4/UART_1_UART.c ****         *  PSoC 4200L / PSoC 4000S / PSoC 4100S / PSoC Analog Coprocessor devices.
 642:Generated_Source\PSoC4/UART_1_UART.c ****         *
 643:Generated_Source\PSoC4/UART_1_UART.c ****         *  \param level: Level in the RX FIFO for RTS signal activation.
 644:Generated_Source\PSoC4/UART_1_UART.c ****         *   The range of valid level values is between 0 and RX FIFO depth - 1.
 645:Generated_Source\PSoC4/UART_1_UART.c ****         *   Setting level value to 0 disables RTS signal activation.
 646:Generated_Source\PSoC4/UART_1_UART.c ****         *
 647:Generated_Source\PSoC4/UART_1_UART.c ****         *******************************************************************************/
 648:Generated_Source\PSoC4/UART_1_UART.c ****         void UART_1_UartSetRtsFifoLevel(uint32 level)
 649:Generated_Source\PSoC4/UART_1_UART.c ****         {
 450              		.loc 1 649 0
 451              		.cfi_startproc
 452              		@ args = 0, pretend = 0, frame = 0
 453              		@ frame_needed = 0, uses_anonymous_args = 0
 454              		@ link register save eliminated.
 455              	.LVL25:
 650:Generated_Source\PSoC4/UART_1_UART.c ****             uint32 uartFlowCtrl;
 651:Generated_Source\PSoC4/UART_1_UART.c **** 
 652:Generated_Source\PSoC4/UART_1_UART.c ****             uartFlowCtrl = UART_1_UART_FLOW_CTRL_REG;
 456              		.loc 1 652 0
 457 0000 034A     		ldr	r2, .L33
 458 0002 1368     		ldr	r3, [r2]
 459              	.LVL26:
 653:Generated_Source\PSoC4/UART_1_UART.c **** 
 654:Generated_Source\PSoC4/UART_1_UART.c ****             uartFlowCtrl &= ((uint32) ~UART_1_UART_FLOW_CTRL_TRIGGER_LEVEL_MASK); /* Clear level ma
 460              		.loc 1 654 0
 461 0004 0F21     		movs	r1, #15
 462 0006 8B43     		bics	r3, r1
 463              	.LVL27:
 655:Generated_Source\PSoC4/UART_1_UART.c ****             uartFlowCtrl |= ((uint32) (UART_1_UART_FLOW_CTRL_TRIGGER_LEVEL_MASK & level));
 464              		.loc 1 655 0
 465 0008 0840     		ands	r0, r1
 466              	.LVL28:
 467 000a 1843     		orrs	r0, r3
 468              	.LVL29:
 656:Generated_Source\PSoC4/UART_1_UART.c **** 
 657:Generated_Source\PSoC4/UART_1_UART.c ****             UART_1_UART_FLOW_CTRL_REG = uartFlowCtrl;
 469              		.loc 1 657 0
 470 000c 1060     		str	r0, [r2]
 658:Generated_Source\PSoC4/UART_1_UART.c ****         }
 471              		.loc 1 658 0
 472              		@ sp needed
 473 000e 7047     		bx	lr
 474              	.L34:
 475              		.align	2
 476              	.L33:
 477 0010 50002440 		.word	1076101200
 478              		.cfi_endproc
 479              	.LFE10:
 480              		.size	UART_1_UartSetRtsFifoLevel, .-UART_1_UartSetRtsFifoLevel
ARM GAS  C:\Users\Rafael\AppData\Local\Temp\ccmZOUTf.s 			page 21


 481              		.section	.text.UART_1_UartPutString,"ax",%progbits
 482              		.align	2
 483              		.global	UART_1_UartPutString
 484              		.code	16
 485              		.thumb_func
 486              		.type	UART_1_UartPutString, %function
 487              	UART_1_UartPutString:
 488              	.LFB11:
 659:Generated_Source\PSoC4/UART_1_UART.c ****     #endif /* !(UART_1_CY_SCBIP_V0 || UART_1_CY_SCBIP_V1) */
 660:Generated_Source\PSoC4/UART_1_UART.c **** 
 661:Generated_Source\PSoC4/UART_1_UART.c **** #endif /* (UART_1_UART_RX_DIRECTION) */
 662:Generated_Source\PSoC4/UART_1_UART.c **** 
 663:Generated_Source\PSoC4/UART_1_UART.c **** 
 664:Generated_Source\PSoC4/UART_1_UART.c **** #if(UART_1_UART_TX_DIRECTION)
 665:Generated_Source\PSoC4/UART_1_UART.c ****     /*******************************************************************************
 666:Generated_Source\PSoC4/UART_1_UART.c ****     * Function Name: UART_1_UartPutString
 667:Generated_Source\PSoC4/UART_1_UART.c ****     ****************************************************************************//**
 668:Generated_Source\PSoC4/UART_1_UART.c ****     *
 669:Generated_Source\PSoC4/UART_1_UART.c ****     *  Places a NULL terminated string in the transmit buffer to be sent at the
 670:Generated_Source\PSoC4/UART_1_UART.c ****     *  next available bus time.
 671:Generated_Source\PSoC4/UART_1_UART.c ****     *  This function is blocking and waits until there is a space available to put
 672:Generated_Source\PSoC4/UART_1_UART.c ****     *  requested data in transmit buffer.
 673:Generated_Source\PSoC4/UART_1_UART.c ****     *
 674:Generated_Source\PSoC4/UART_1_UART.c ****     *  \param string: pointer to the null terminated string array to be placed in the
 675:Generated_Source\PSoC4/UART_1_UART.c ****     *   transmit buffer.
 676:Generated_Source\PSoC4/UART_1_UART.c ****     *
 677:Generated_Source\PSoC4/UART_1_UART.c ****     *******************************************************************************/
 678:Generated_Source\PSoC4/UART_1_UART.c ****     void UART_1_UartPutString(const char8 string[])
 679:Generated_Source\PSoC4/UART_1_UART.c ****     {
 489              		.loc 1 679 0
 490              		.cfi_startproc
 491              		@ args = 0, pretend = 0, frame = 0
 492              		@ frame_needed = 0, uses_anonymous_args = 0
 493              	.LVL30:
 494 0000 70B5     		push	{r4, r5, r6, lr}
 495              		.cfi_def_cfa_offset 16
 496              		.cfi_offset 4, -16
 497              		.cfi_offset 5, -12
 498              		.cfi_offset 6, -8
 499              		.cfi_offset 14, -4
 500 0002 0500     		movs	r5, r0
 501              	.LVL31:
 680:Generated_Source\PSoC4/UART_1_UART.c ****         uint32 bufIndex;
 681:Generated_Source\PSoC4/UART_1_UART.c **** 
 682:Generated_Source\PSoC4/UART_1_UART.c ****         bufIndex = 0u;
 502              		.loc 1 682 0
 503 0004 0024     		movs	r4, #0
 683:Generated_Source\PSoC4/UART_1_UART.c **** 
 684:Generated_Source\PSoC4/UART_1_UART.c ****         /* Blocks the control flow until all data has been sent */
 685:Generated_Source\PSoC4/UART_1_UART.c ****         while(string[bufIndex] != ((char8) 0))
 504              		.loc 1 685 0
 505 0006 02E0     		b	.L36
 506              	.LVL32:
 507              	.L37:
 686:Generated_Source\PSoC4/UART_1_UART.c ****         {
 687:Generated_Source\PSoC4/UART_1_UART.c ****             UART_1_UartPutChar((uint32) string[bufIndex]);
 508              		.loc 1 687 0
ARM GAS  C:\Users\Rafael\AppData\Local\Temp\ccmZOUTf.s 			page 22


 509 0008 FFF7FEFF 		bl	UART_1_SpiUartWriteTxData
 510              	.LVL33:
 688:Generated_Source\PSoC4/UART_1_UART.c ****             bufIndex++;
 511              		.loc 1 688 0
 512 000c 0134     		adds	r4, r4, #1
 513              	.LVL34:
 514              	.L36:
 685:Generated_Source\PSoC4/UART_1_UART.c ****         {
 515              		.loc 1 685 0
 516 000e 285D     		ldrb	r0, [r5, r4]
 517 0010 0028     		cmp	r0, #0
 518 0012 F9D1     		bne	.L37
 689:Generated_Source\PSoC4/UART_1_UART.c ****         }
 690:Generated_Source\PSoC4/UART_1_UART.c ****     }
 519              		.loc 1 690 0
 520              		@ sp needed
 521              	.LVL35:
 522              	.LVL36:
 523 0014 70BD     		pop	{r4, r5, r6, pc}
 524              		.cfi_endproc
 525              	.LFE11:
 526              		.size	UART_1_UartPutString, .-UART_1_UartPutString
 527 0016 C046     		.section	.text.UART_1_UartPutCRLF,"ax",%progbits
 528              		.align	2
 529              		.global	UART_1_UartPutCRLF
 530              		.code	16
 531              		.thumb_func
 532              		.type	UART_1_UartPutCRLF, %function
 533              	UART_1_UartPutCRLF:
 534              	.LFB12:
 691:Generated_Source\PSoC4/UART_1_UART.c **** 
 692:Generated_Source\PSoC4/UART_1_UART.c **** 
 693:Generated_Source\PSoC4/UART_1_UART.c ****     /*******************************************************************************
 694:Generated_Source\PSoC4/UART_1_UART.c ****     * Function Name: UART_1_UartPutCRLF
 695:Generated_Source\PSoC4/UART_1_UART.c ****     ****************************************************************************//**
 696:Generated_Source\PSoC4/UART_1_UART.c ****     *
 697:Generated_Source\PSoC4/UART_1_UART.c ****     *  Places byte of data followed by a carriage return (0x0D) and line feed
 698:Generated_Source\PSoC4/UART_1_UART.c ****     *  (0x0A) in the transmit buffer.
 699:Generated_Source\PSoC4/UART_1_UART.c ****     *  This function is blocking and waits until there is a space available to put
 700:Generated_Source\PSoC4/UART_1_UART.c ****     *  all requested data in transmit buffer.
 701:Generated_Source\PSoC4/UART_1_UART.c ****     *
 702:Generated_Source\PSoC4/UART_1_UART.c ****     *  \param txDataByte: the data to be transmitted.
 703:Generated_Source\PSoC4/UART_1_UART.c ****     *
 704:Generated_Source\PSoC4/UART_1_UART.c ****     *******************************************************************************/
 705:Generated_Source\PSoC4/UART_1_UART.c ****     void UART_1_UartPutCRLF(uint32 txDataByte)
 706:Generated_Source\PSoC4/UART_1_UART.c ****     {
 535              		.loc 1 706 0
 536              		.cfi_startproc
 537              		@ args = 0, pretend = 0, frame = 0
 538              		@ frame_needed = 0, uses_anonymous_args = 0
 539              	.LVL37:
 540 0000 10B5     		push	{r4, lr}
 541              		.cfi_def_cfa_offset 8
 542              		.cfi_offset 4, -8
 543              		.cfi_offset 14, -4
 707:Generated_Source\PSoC4/UART_1_UART.c ****         UART_1_UartPutChar(txDataByte);  /* Blocks control flow until all data has been sent */
 544              		.loc 1 707 0
ARM GAS  C:\Users\Rafael\AppData\Local\Temp\ccmZOUTf.s 			page 23


 545 0002 FFF7FEFF 		bl	UART_1_SpiUartWriteTxData
 546              	.LVL38:
 708:Generated_Source\PSoC4/UART_1_UART.c ****         UART_1_UartPutChar(0x0Du);       /* Blocks control flow until all data has been sent */
 547              		.loc 1 708 0
 548 0006 0D20     		movs	r0, #13
 549 0008 FFF7FEFF 		bl	UART_1_SpiUartWriteTxData
 550              	.LVL39:
 709:Generated_Source\PSoC4/UART_1_UART.c ****         UART_1_UartPutChar(0x0Au);       /* Blocks control flow until all data has been sent */
 551              		.loc 1 709 0
 552 000c 0A20     		movs	r0, #10
 553 000e FFF7FEFF 		bl	UART_1_SpiUartWriteTxData
 554              	.LVL40:
 710:Generated_Source\PSoC4/UART_1_UART.c ****     }
 555              		.loc 1 710 0
 556              		@ sp needed
 557 0012 10BD     		pop	{r4, pc}
 558              		.cfi_endproc
 559              	.LFE12:
 560              		.size	UART_1_UartPutCRLF, .-UART_1_UartPutCRLF
 561              		.section	.text.UART_1_UartEnableCts,"ax",%progbits
 562              		.align	2
 563              		.global	UART_1_UartEnableCts
 564              		.code	16
 565              		.thumb_func
 566              		.type	UART_1_UartEnableCts, %function
 567              	UART_1_UartEnableCts:
 568              	.LFB13:
 711:Generated_Source\PSoC4/UART_1_UART.c **** 
 712:Generated_Source\PSoC4/UART_1_UART.c **** 
 713:Generated_Source\PSoC4/UART_1_UART.c ****     #if !(UART_1_CY_SCBIP_V0 || UART_1_CY_SCBIP_V1)
 714:Generated_Source\PSoC4/UART_1_UART.c ****         /*******************************************************************************
 715:Generated_Source\PSoC4/UART_1_UART.c ****         * Function Name: UART_1SCB_UartEnableCts
 716:Generated_Source\PSoC4/UART_1_UART.c ****         ****************************************************************************//**
 717:Generated_Source\PSoC4/UART_1_UART.c ****         *
 718:Generated_Source\PSoC4/UART_1_UART.c ****         *  Enables usage of CTS input signal by the UART transmitter.
 719:Generated_Source\PSoC4/UART_1_UART.c ****         *  Only available for PSoC 4100 BLE / PSoC 4200 BLE / PSoC 4100M / PSoC 4200M /
 720:Generated_Source\PSoC4/UART_1_UART.c ****         *  PSoC 4200L / PSoC 4000S / PSoC 4100S / PSoC Analog Coprocessor devices.
 721:Generated_Source\PSoC4/UART_1_UART.c ****         *
 722:Generated_Source\PSoC4/UART_1_UART.c ****         *******************************************************************************/
 723:Generated_Source\PSoC4/UART_1_UART.c ****         void UART_1_UartEnableCts(void)
 724:Generated_Source\PSoC4/UART_1_UART.c ****         {
 569              		.loc 1 724 0
 570              		.cfi_startproc
 571              		@ args = 0, pretend = 0, frame = 0
 572              		@ frame_needed = 0, uses_anonymous_args = 0
 573              		@ link register save eliminated.
 725:Generated_Source\PSoC4/UART_1_UART.c ****             UART_1_UART_FLOW_CTRL_REG |= (uint32)  UART_1_UART_FLOW_CTRL_CTS_ENABLE;
 574              		.loc 1 725 0
 575 0000 034A     		ldr	r2, .L40
 576 0002 1368     		ldr	r3, [r2]
 577 0004 8021     		movs	r1, #128
 578 0006 8904     		lsls	r1, r1, #18
 579 0008 0B43     		orrs	r3, r1
 580 000a 1360     		str	r3, [r2]
 726:Generated_Source\PSoC4/UART_1_UART.c ****         }
 581              		.loc 1 726 0
 582              		@ sp needed
ARM GAS  C:\Users\Rafael\AppData\Local\Temp\ccmZOUTf.s 			page 24


 583 000c 7047     		bx	lr
 584              	.L41:
 585 000e C046     		.align	2
 586              	.L40:
 587 0010 50002440 		.word	1076101200
 588              		.cfi_endproc
 589              	.LFE13:
 590              		.size	UART_1_UartEnableCts, .-UART_1_UartEnableCts
 591              		.section	.text.UART_1_UartDisableCts,"ax",%progbits
 592              		.align	2
 593              		.global	UART_1_UartDisableCts
 594              		.code	16
 595              		.thumb_func
 596              		.type	UART_1_UartDisableCts, %function
 597              	UART_1_UartDisableCts:
 598              	.LFB14:
 727:Generated_Source\PSoC4/UART_1_UART.c **** 
 728:Generated_Source\PSoC4/UART_1_UART.c **** 
 729:Generated_Source\PSoC4/UART_1_UART.c ****         /*******************************************************************************
 730:Generated_Source\PSoC4/UART_1_UART.c ****         * Function Name: UART_1_UartDisableCts
 731:Generated_Source\PSoC4/UART_1_UART.c ****         ****************************************************************************//**
 732:Generated_Source\PSoC4/UART_1_UART.c ****         *
 733:Generated_Source\PSoC4/UART_1_UART.c ****         *  Disables usage of CTS input signal by the UART transmitter.
 734:Generated_Source\PSoC4/UART_1_UART.c ****         *  Only available for PSoC 4100 BLE / PSoC 4200 BLE / PSoC 4100M / PSoC 4200M /
 735:Generated_Source\PSoC4/UART_1_UART.c ****         *  PSoC 4200L / PSoC 4000S / PSoC 4100S / PSoC Analog Coprocessor devices.
 736:Generated_Source\PSoC4/UART_1_UART.c ****         *
 737:Generated_Source\PSoC4/UART_1_UART.c ****         *******************************************************************************/
 738:Generated_Source\PSoC4/UART_1_UART.c ****         void UART_1_UartDisableCts(void)
 739:Generated_Source\PSoC4/UART_1_UART.c ****         {
 599              		.loc 1 739 0
 600              		.cfi_startproc
 601              		@ args = 0, pretend = 0, frame = 0
 602              		@ frame_needed = 0, uses_anonymous_args = 0
 603              		@ link register save eliminated.
 740:Generated_Source\PSoC4/UART_1_UART.c ****             UART_1_UART_FLOW_CTRL_REG &= (uint32) ~UART_1_UART_FLOW_CTRL_CTS_ENABLE;
 604              		.loc 1 740 0
 605 0000 024A     		ldr	r2, .L43
 606 0002 1168     		ldr	r1, [r2]
 607 0004 024B     		ldr	r3, .L43+4
 608 0006 0B40     		ands	r3, r1
 609 0008 1360     		str	r3, [r2]
 741:Generated_Source\PSoC4/UART_1_UART.c ****         }
 610              		.loc 1 741 0
 611              		@ sp needed
 612 000a 7047     		bx	lr
 613              	.L44:
 614              		.align	2
 615              	.L43:
 616 000c 50002440 		.word	1076101200
 617 0010 FFFFFFFD 		.word	-33554433
 618              		.cfi_endproc
 619              	.LFE14:
 620              		.size	UART_1_UartDisableCts, .-UART_1_UartDisableCts
 621              		.section	.text.UART_1_UartSetCtsPolarity,"ax",%progbits
 622              		.align	2
 623              		.global	UART_1_UartSetCtsPolarity
 624              		.code	16
ARM GAS  C:\Users\Rafael\AppData\Local\Temp\ccmZOUTf.s 			page 25


 625              		.thumb_func
 626              		.type	UART_1_UartSetCtsPolarity, %function
 627              	UART_1_UartSetCtsPolarity:
 628              	.LFB15:
 742:Generated_Source\PSoC4/UART_1_UART.c **** 
 743:Generated_Source\PSoC4/UART_1_UART.c **** 
 744:Generated_Source\PSoC4/UART_1_UART.c ****         /*******************************************************************************
 745:Generated_Source\PSoC4/UART_1_UART.c ****         * Function Name: UART_1_UartSetCtsPolarity
 746:Generated_Source\PSoC4/UART_1_UART.c ****         ****************************************************************************//**
 747:Generated_Source\PSoC4/UART_1_UART.c ****         *
 748:Generated_Source\PSoC4/UART_1_UART.c ****         *  Sets active polarity of CTS input signal.
 749:Generated_Source\PSoC4/UART_1_UART.c ****         *  Only available for PSoC 4100 BLE / PSoC 4200 BLE / PSoC 4100M / PSoC 4200M /
 750:Generated_Source\PSoC4/UART_1_UART.c ****         *  PSoC 4200L / PSoC 4000S / PSoC 4100S / PSoC Analog Coprocessor devices.
 751:Generated_Source\PSoC4/UART_1_UART.c ****         *
 752:Generated_Source\PSoC4/UART_1_UART.c ****         *  \param polarity: Active polarity of CTS output signal.
 753:Generated_Source\PSoC4/UART_1_UART.c ****         *   - UART_1_UART_CTS_ACTIVE_LOW  - CTS signal is active low.
 754:Generated_Source\PSoC4/UART_1_UART.c ****         *   - UART_1_UART_CTS_ACTIVE_HIGH - CTS signal is active high.
 755:Generated_Source\PSoC4/UART_1_UART.c ****         *
 756:Generated_Source\PSoC4/UART_1_UART.c ****         *******************************************************************************/
 757:Generated_Source\PSoC4/UART_1_UART.c ****         void UART_1_UartSetCtsPolarity(uint32 polarity)
 758:Generated_Source\PSoC4/UART_1_UART.c ****         {
 629              		.loc 1 758 0
 630              		.cfi_startproc
 631              		@ args = 0, pretend = 0, frame = 0
 632              		@ frame_needed = 0, uses_anonymous_args = 0
 633              		@ link register save eliminated.
 634              	.LVL41:
 759:Generated_Source\PSoC4/UART_1_UART.c ****             if (0u != polarity)
 635              		.loc 1 759 0
 636 0000 0028     		cmp	r0, #0
 637 0002 06D0     		beq	.L46
 760:Generated_Source\PSoC4/UART_1_UART.c ****             {
 761:Generated_Source\PSoC4/UART_1_UART.c ****                 UART_1_UART_FLOW_CTRL_REG |= (uint32)  UART_1_UART_FLOW_CTRL_CTS_POLARITY;
 638              		.loc 1 761 0
 639 0004 064A     		ldr	r2, .L48
 640 0006 1368     		ldr	r3, [r2]
 641 0008 8021     		movs	r1, #128
 642 000a 4904     		lsls	r1, r1, #17
 643 000c 0B43     		orrs	r3, r1
 644 000e 1360     		str	r3, [r2]
 645 0010 04E0     		b	.L45
 646              	.L46:
 762:Generated_Source\PSoC4/UART_1_UART.c ****             }
 763:Generated_Source\PSoC4/UART_1_UART.c ****             else
 764:Generated_Source\PSoC4/UART_1_UART.c ****             {
 765:Generated_Source\PSoC4/UART_1_UART.c ****                 UART_1_UART_FLOW_CTRL_REG &= (uint32) ~UART_1_UART_FLOW_CTRL_CTS_POLARITY;
 647              		.loc 1 765 0
 648 0012 034A     		ldr	r2, .L48
 649 0014 1168     		ldr	r1, [r2]
 650 0016 034B     		ldr	r3, .L48+4
 651 0018 0B40     		ands	r3, r1
 652 001a 1360     		str	r3, [r2]
 653              	.L45:
 766:Generated_Source\PSoC4/UART_1_UART.c ****             }
 767:Generated_Source\PSoC4/UART_1_UART.c ****         }
 654              		.loc 1 767 0
 655              		@ sp needed
ARM GAS  C:\Users\Rafael\AppData\Local\Temp\ccmZOUTf.s 			page 26


 656 001c 7047     		bx	lr
 657              	.L49:
 658 001e C046     		.align	2
 659              	.L48:
 660 0020 50002440 		.word	1076101200
 661 0024 FFFFFFFE 		.word	-16777217
 662              		.cfi_endproc
 663              	.LFE15:
 664              		.size	UART_1_UartSetCtsPolarity, .-UART_1_UartSetCtsPolarity
 665              		.text
 666              	.Letext0:
 667              		.file 2 "Generated_Source\\PSoC4/cytypes.h"
 668              		.file 3 "Generated_Source\\PSoC4\\UART_1_SPI_UART.h"
 669              		.file 4 "Generated_Source\\PSoC4\\UART_1_PVT.h"