ARM GAS  C:\Users\BREYAN~1\AppData\Local\Temp\ccnjh7gX.s 			page 1


   1              		.cpu cortex-m0
   2              		.fpu softvfp
   3              		.eabi_attribute 20, 1
   4              		.eabi_attribute 21, 1
   5              		.eabi_attribute 23, 3
   6              		.eabi_attribute 24, 1
   7              		.eabi_attribute 25, 1
   8              		.eabi_attribute 26, 1
   9              		.eabi_attribute 30, 6
  10              		.eabi_attribute 34, 0
  11              		.eabi_attribute 18, 4
  12              		.code	16
  13              		.file	"SDCard_SPIM_SCB_IRQ.c"
  14              		.text
  15              	.Ltext0:
  16              		.cfi_sections	.debug_frame
  17              		.section	.text.SDCard_SPIM_SCB_IRQ_Start,"ax",%progbits
  18              		.align	2
  19              		.global	SDCard_SPIM_SCB_IRQ_Start
  20              		.code	16
  21              		.thumb_func
  22              		.type	SDCard_SPIM_SCB_IRQ_Start, %function
  23              	SDCard_SPIM_SCB_IRQ_Start:
  24              	.LFB0:
  25              		.file 1 "Generated_Source\\PSoC4\\SDCard_SPIM_SCB_IRQ.c"
   1:Generated_Source\PSoC4/SDCard_SPIM_SCB_IRQ.c **** /*******************************************************************************
   2:Generated_Source\PSoC4/SDCard_SPIM_SCB_IRQ.c **** * File Name: SDCard_SPIM_SCB_IRQ.c  
   3:Generated_Source\PSoC4/SDCard_SPIM_SCB_IRQ.c **** * Version 1.70
   4:Generated_Source\PSoC4/SDCard_SPIM_SCB_IRQ.c **** *
   5:Generated_Source\PSoC4/SDCard_SPIM_SCB_IRQ.c **** *  Description:
   6:Generated_Source\PSoC4/SDCard_SPIM_SCB_IRQ.c **** *   API for controlling the state of an interrupt.
   7:Generated_Source\PSoC4/SDCard_SPIM_SCB_IRQ.c **** *
   8:Generated_Source\PSoC4/SDCard_SPIM_SCB_IRQ.c **** *
   9:Generated_Source\PSoC4/SDCard_SPIM_SCB_IRQ.c **** *  Note:
  10:Generated_Source\PSoC4/SDCard_SPIM_SCB_IRQ.c **** *
  11:Generated_Source\PSoC4/SDCard_SPIM_SCB_IRQ.c **** ********************************************************************************
  12:Generated_Source\PSoC4/SDCard_SPIM_SCB_IRQ.c **** * Copyright 2008-2015, Cypress Semiconductor Corporation.  All rights reserved.
  13:Generated_Source\PSoC4/SDCard_SPIM_SCB_IRQ.c **** * You may use this file only in accordance with the license, terms, conditions, 
  14:Generated_Source\PSoC4/SDCard_SPIM_SCB_IRQ.c **** * disclaimers, and limitations in the end user license agreement accompanying 
  15:Generated_Source\PSoC4/SDCard_SPIM_SCB_IRQ.c **** * the software package with which this file was provided.
  16:Generated_Source\PSoC4/SDCard_SPIM_SCB_IRQ.c **** *******************************************************************************/
  17:Generated_Source\PSoC4/SDCard_SPIM_SCB_IRQ.c **** 
  18:Generated_Source\PSoC4/SDCard_SPIM_SCB_IRQ.c **** 
  19:Generated_Source\PSoC4/SDCard_SPIM_SCB_IRQ.c **** #include <cydevice_trm.h>
  20:Generated_Source\PSoC4/SDCard_SPIM_SCB_IRQ.c **** #include <CyLib.h>
  21:Generated_Source\PSoC4/SDCard_SPIM_SCB_IRQ.c **** #include <SDCard_SPIM_SCB_IRQ.h>
  22:Generated_Source\PSoC4/SDCard_SPIM_SCB_IRQ.c **** 
  23:Generated_Source\PSoC4/SDCard_SPIM_SCB_IRQ.c **** 
  24:Generated_Source\PSoC4/SDCard_SPIM_SCB_IRQ.c **** #if !defined(SDCard_SPIM_SCB_IRQ__REMOVED) /* Check for removal by optimization */
  25:Generated_Source\PSoC4/SDCard_SPIM_SCB_IRQ.c **** 
  26:Generated_Source\PSoC4/SDCard_SPIM_SCB_IRQ.c **** /*******************************************************************************
  27:Generated_Source\PSoC4/SDCard_SPIM_SCB_IRQ.c **** *  Place your includes, defines and code here 
  28:Generated_Source\PSoC4/SDCard_SPIM_SCB_IRQ.c **** ********************************************************************************/
  29:Generated_Source\PSoC4/SDCard_SPIM_SCB_IRQ.c **** /* `#START SDCard_SPIM_SCB_IRQ_intc` */
  30:Generated_Source\PSoC4/SDCard_SPIM_SCB_IRQ.c **** 
  31:Generated_Source\PSoC4/SDCard_SPIM_SCB_IRQ.c **** /* `#END` */
  32:Generated_Source\PSoC4/SDCard_SPIM_SCB_IRQ.c **** 
ARM GAS  C:\Users\BREYAN~1\AppData\Local\Temp\ccnjh7gX.s 			page 2


  33:Generated_Source\PSoC4/SDCard_SPIM_SCB_IRQ.c **** extern cyisraddress CyRamVectors[CYINT_IRQ_BASE + CY_NUM_INTERRUPTS];
  34:Generated_Source\PSoC4/SDCard_SPIM_SCB_IRQ.c **** 
  35:Generated_Source\PSoC4/SDCard_SPIM_SCB_IRQ.c **** /* Declared in startup, used to set unused interrupts to. */
  36:Generated_Source\PSoC4/SDCard_SPIM_SCB_IRQ.c **** CY_ISR_PROTO(IntDefaultHandler);
  37:Generated_Source\PSoC4/SDCard_SPIM_SCB_IRQ.c **** 
  38:Generated_Source\PSoC4/SDCard_SPIM_SCB_IRQ.c **** 
  39:Generated_Source\PSoC4/SDCard_SPIM_SCB_IRQ.c **** /*******************************************************************************
  40:Generated_Source\PSoC4/SDCard_SPIM_SCB_IRQ.c **** * Function Name: SDCard_SPIM_SCB_IRQ_Start
  41:Generated_Source\PSoC4/SDCard_SPIM_SCB_IRQ.c **** ********************************************************************************
  42:Generated_Source\PSoC4/SDCard_SPIM_SCB_IRQ.c **** *
  43:Generated_Source\PSoC4/SDCard_SPIM_SCB_IRQ.c **** * Summary:
  44:Generated_Source\PSoC4/SDCard_SPIM_SCB_IRQ.c **** *  Set up the interrupt and enable it. This function disables the interrupt, 
  45:Generated_Source\PSoC4/SDCard_SPIM_SCB_IRQ.c **** *  sets the default interrupt vector, sets the priority from the value in the
  46:Generated_Source\PSoC4/SDCard_SPIM_SCB_IRQ.c **** *  Design Wide Resources Interrupt Editor, then enables the interrupt to the 
  47:Generated_Source\PSoC4/SDCard_SPIM_SCB_IRQ.c **** *  interrupt controller.
  48:Generated_Source\PSoC4/SDCard_SPIM_SCB_IRQ.c **** *
  49:Generated_Source\PSoC4/SDCard_SPIM_SCB_IRQ.c **** * Parameters:  
  50:Generated_Source\PSoC4/SDCard_SPIM_SCB_IRQ.c **** *   None
  51:Generated_Source\PSoC4/SDCard_SPIM_SCB_IRQ.c **** *
  52:Generated_Source\PSoC4/SDCard_SPIM_SCB_IRQ.c **** * Return:
  53:Generated_Source\PSoC4/SDCard_SPIM_SCB_IRQ.c **** *   None
  54:Generated_Source\PSoC4/SDCard_SPIM_SCB_IRQ.c **** *
  55:Generated_Source\PSoC4/SDCard_SPIM_SCB_IRQ.c **** *******************************************************************************/
  56:Generated_Source\PSoC4/SDCard_SPIM_SCB_IRQ.c **** void SDCard_SPIM_SCB_IRQ_Start(void)
  57:Generated_Source\PSoC4/SDCard_SPIM_SCB_IRQ.c **** {
  26              		.loc 1 57 0
  27              		.cfi_startproc
  28 0000 80B5     		push	{r7, lr}
  29              		.cfi_def_cfa_offset 8
  30              		.cfi_offset 7, -8
  31              		.cfi_offset 14, -4
  32 0002 00AF     		add	r7, sp, #0
  33              		.cfi_def_cfa_register 7
  58:Generated_Source\PSoC4/SDCard_SPIM_SCB_IRQ.c ****     /* For all we know the interrupt is active. */
  59:Generated_Source\PSoC4/SDCard_SPIM_SCB_IRQ.c ****     SDCard_SPIM_SCB_IRQ_Disable();
  34              		.loc 1 59 0
  35 0004 FFF7FEFF 		bl	SDCard_SPIM_SCB_IRQ_Disable
  60:Generated_Source\PSoC4/SDCard_SPIM_SCB_IRQ.c **** 
  61:Generated_Source\PSoC4/SDCard_SPIM_SCB_IRQ.c ****     /* Set the ISR to point to the SDCard_SPIM_SCB_IRQ Interrupt. */
  62:Generated_Source\PSoC4/SDCard_SPIM_SCB_IRQ.c ****     SDCard_SPIM_SCB_IRQ_SetVector(&SDCard_SPIM_SCB_IRQ_Interrupt);
  36              		.loc 1 62 0
  37 0008 054B     		ldr	r3, .L2
  38 000a 181C     		mov	r0, r3
  39 000c FFF7FEFF 		bl	SDCard_SPIM_SCB_IRQ_SetVector
  63:Generated_Source\PSoC4/SDCard_SPIM_SCB_IRQ.c **** 
  64:Generated_Source\PSoC4/SDCard_SPIM_SCB_IRQ.c ****     /* Set the priority. */
  65:Generated_Source\PSoC4/SDCard_SPIM_SCB_IRQ.c ****     SDCard_SPIM_SCB_IRQ_SetPriority((uint8)SDCard_SPIM_SCB_IRQ_INTC_PRIOR_NUMBER);
  40              		.loc 1 65 0
  41 0010 0320     		mov	r0, #3
  42 0012 FFF7FEFF 		bl	SDCard_SPIM_SCB_IRQ_SetPriority
  66:Generated_Source\PSoC4/SDCard_SPIM_SCB_IRQ.c **** 
  67:Generated_Source\PSoC4/SDCard_SPIM_SCB_IRQ.c ****     /* Enable it. */
  68:Generated_Source\PSoC4/SDCard_SPIM_SCB_IRQ.c ****     SDCard_SPIM_SCB_IRQ_Enable();
  43              		.loc 1 68 0
  44 0016 FFF7FEFF 		bl	SDCard_SPIM_SCB_IRQ_Enable
  69:Generated_Source\PSoC4/SDCard_SPIM_SCB_IRQ.c **** }
  45              		.loc 1 69 0
ARM GAS  C:\Users\BREYAN~1\AppData\Local\Temp\ccnjh7gX.s 			page 3


  46 001a BD46     		mov	sp, r7
  47              		@ sp needed
  48 001c 80BD     		pop	{r7, pc}
  49              	.L3:
  50 001e C046     		.align	2
  51              	.L2:
  52 0020 00000000 		.word	SDCard_SPIM_SCB_IRQ_Interrupt
  53              		.cfi_endproc
  54              	.LFE0:
  55              		.size	SDCard_SPIM_SCB_IRQ_Start, .-SDCard_SPIM_SCB_IRQ_Start
  56              		.section	.text.SDCard_SPIM_SCB_IRQ_StartEx,"ax",%progbits
  57              		.align	2
  58              		.global	SDCard_SPIM_SCB_IRQ_StartEx
  59              		.code	16
  60              		.thumb_func
  61              		.type	SDCard_SPIM_SCB_IRQ_StartEx, %function
  62              	SDCard_SPIM_SCB_IRQ_StartEx:
  63              	.LFB1:
  70:Generated_Source\PSoC4/SDCard_SPIM_SCB_IRQ.c **** 
  71:Generated_Source\PSoC4/SDCard_SPIM_SCB_IRQ.c **** 
  72:Generated_Source\PSoC4/SDCard_SPIM_SCB_IRQ.c **** /*******************************************************************************
  73:Generated_Source\PSoC4/SDCard_SPIM_SCB_IRQ.c **** * Function Name: SDCard_SPIM_SCB_IRQ_StartEx
  74:Generated_Source\PSoC4/SDCard_SPIM_SCB_IRQ.c **** ********************************************************************************
  75:Generated_Source\PSoC4/SDCard_SPIM_SCB_IRQ.c **** *
  76:Generated_Source\PSoC4/SDCard_SPIM_SCB_IRQ.c **** * Summary:
  77:Generated_Source\PSoC4/SDCard_SPIM_SCB_IRQ.c **** *  Sets up the interrupt and enables it. This function disables the interrupt,
  78:Generated_Source\PSoC4/SDCard_SPIM_SCB_IRQ.c **** *  sets the interrupt vector based on the address passed in, sets the priority 
  79:Generated_Source\PSoC4/SDCard_SPIM_SCB_IRQ.c **** *  from the value in the Design Wide Resources Interrupt Editor, then enables 
  80:Generated_Source\PSoC4/SDCard_SPIM_SCB_IRQ.c **** *  the interrupt to the interrupt controller.
  81:Generated_Source\PSoC4/SDCard_SPIM_SCB_IRQ.c **** *  
  82:Generated_Source\PSoC4/SDCard_SPIM_SCB_IRQ.c **** *  When defining ISR functions, the CY_ISR and CY_ISR_PROTO macros should be 
  83:Generated_Source\PSoC4/SDCard_SPIM_SCB_IRQ.c **** *  used to provide consistent definition across compilers:
  84:Generated_Source\PSoC4/SDCard_SPIM_SCB_IRQ.c **** *  
  85:Generated_Source\PSoC4/SDCard_SPIM_SCB_IRQ.c **** *  Function definition example:
  86:Generated_Source\PSoC4/SDCard_SPIM_SCB_IRQ.c **** *   CY_ISR(MyISR)
  87:Generated_Source\PSoC4/SDCard_SPIM_SCB_IRQ.c **** *   {
  88:Generated_Source\PSoC4/SDCard_SPIM_SCB_IRQ.c **** *   }
  89:Generated_Source\PSoC4/SDCard_SPIM_SCB_IRQ.c **** *   Function prototype example:
  90:Generated_Source\PSoC4/SDCard_SPIM_SCB_IRQ.c **** *   CY_ISR_PROTO(MyISR);
  91:Generated_Source\PSoC4/SDCard_SPIM_SCB_IRQ.c **** *
  92:Generated_Source\PSoC4/SDCard_SPIM_SCB_IRQ.c **** * Parameters:  
  93:Generated_Source\PSoC4/SDCard_SPIM_SCB_IRQ.c **** *   address: Address of the ISR to set in the interrupt vector table.
  94:Generated_Source\PSoC4/SDCard_SPIM_SCB_IRQ.c **** *
  95:Generated_Source\PSoC4/SDCard_SPIM_SCB_IRQ.c **** * Return:
  96:Generated_Source\PSoC4/SDCard_SPIM_SCB_IRQ.c **** *   None
  97:Generated_Source\PSoC4/SDCard_SPIM_SCB_IRQ.c **** *
  98:Generated_Source\PSoC4/SDCard_SPIM_SCB_IRQ.c **** *******************************************************************************/
  99:Generated_Source\PSoC4/SDCard_SPIM_SCB_IRQ.c **** void SDCard_SPIM_SCB_IRQ_StartEx(cyisraddress address)
 100:Generated_Source\PSoC4/SDCard_SPIM_SCB_IRQ.c **** {
  64              		.loc 1 100 0
  65              		.cfi_startproc
  66 0000 80B5     		push	{r7, lr}
  67              		.cfi_def_cfa_offset 8
  68              		.cfi_offset 7, -8
  69              		.cfi_offset 14, -4
  70 0002 82B0     		sub	sp, sp, #8
  71              		.cfi_def_cfa_offset 16
ARM GAS  C:\Users\BREYAN~1\AppData\Local\Temp\ccnjh7gX.s 			page 4


  72 0004 00AF     		add	r7, sp, #0
  73              		.cfi_def_cfa_register 7
  74 0006 7860     		str	r0, [r7, #4]
 101:Generated_Source\PSoC4/SDCard_SPIM_SCB_IRQ.c ****     /* For all we know the interrupt is active. */
 102:Generated_Source\PSoC4/SDCard_SPIM_SCB_IRQ.c ****     SDCard_SPIM_SCB_IRQ_Disable();
  75              		.loc 1 102 0
  76 0008 FFF7FEFF 		bl	SDCard_SPIM_SCB_IRQ_Disable
 103:Generated_Source\PSoC4/SDCard_SPIM_SCB_IRQ.c **** 
 104:Generated_Source\PSoC4/SDCard_SPIM_SCB_IRQ.c ****     /* Set the ISR to point to the SDCard_SPIM_SCB_IRQ Interrupt. */
 105:Generated_Source\PSoC4/SDCard_SPIM_SCB_IRQ.c ****     SDCard_SPIM_SCB_IRQ_SetVector(address);
  77              		.loc 1 105 0
  78 000c 7B68     		ldr	r3, [r7, #4]
  79 000e 181C     		mov	r0, r3
  80 0010 FFF7FEFF 		bl	SDCard_SPIM_SCB_IRQ_SetVector
 106:Generated_Source\PSoC4/SDCard_SPIM_SCB_IRQ.c **** 
 107:Generated_Source\PSoC4/SDCard_SPIM_SCB_IRQ.c ****     /* Set the priority. */
 108:Generated_Source\PSoC4/SDCard_SPIM_SCB_IRQ.c ****     SDCard_SPIM_SCB_IRQ_SetPriority((uint8)SDCard_SPIM_SCB_IRQ_INTC_PRIOR_NUMBER);
  81              		.loc 1 108 0
  82 0014 0320     		mov	r0, #3
  83 0016 FFF7FEFF 		bl	SDCard_SPIM_SCB_IRQ_SetPriority
 109:Generated_Source\PSoC4/SDCard_SPIM_SCB_IRQ.c **** 
 110:Generated_Source\PSoC4/SDCard_SPIM_SCB_IRQ.c ****     /* Enable it. */
 111:Generated_Source\PSoC4/SDCard_SPIM_SCB_IRQ.c ****     SDCard_SPIM_SCB_IRQ_Enable();
  84              		.loc 1 111 0
  85 001a FFF7FEFF 		bl	SDCard_SPIM_SCB_IRQ_Enable
 112:Generated_Source\PSoC4/SDCard_SPIM_SCB_IRQ.c **** }
  86              		.loc 1 112 0
  87 001e BD46     		mov	sp, r7
  88 0020 02B0     		add	sp, sp, #8
  89              		@ sp needed
  90 0022 80BD     		pop	{r7, pc}
  91              		.cfi_endproc
  92              	.LFE1:
  93              		.size	SDCard_SPIM_SCB_IRQ_StartEx, .-SDCard_SPIM_SCB_IRQ_StartEx
  94              		.section	.text.SDCard_SPIM_SCB_IRQ_Stop,"ax",%progbits
  95              		.align	2
  96              		.global	SDCard_SPIM_SCB_IRQ_Stop
  97              		.code	16
  98              		.thumb_func
  99              		.type	SDCard_SPIM_SCB_IRQ_Stop, %function
 100              	SDCard_SPIM_SCB_IRQ_Stop:
 101              	.LFB2:
 113:Generated_Source\PSoC4/SDCard_SPIM_SCB_IRQ.c **** 
 114:Generated_Source\PSoC4/SDCard_SPIM_SCB_IRQ.c **** 
 115:Generated_Source\PSoC4/SDCard_SPIM_SCB_IRQ.c **** /*******************************************************************************
 116:Generated_Source\PSoC4/SDCard_SPIM_SCB_IRQ.c **** * Function Name: SDCard_SPIM_SCB_IRQ_Stop
 117:Generated_Source\PSoC4/SDCard_SPIM_SCB_IRQ.c **** ********************************************************************************
 118:Generated_Source\PSoC4/SDCard_SPIM_SCB_IRQ.c **** *
 119:Generated_Source\PSoC4/SDCard_SPIM_SCB_IRQ.c **** * Summary:
 120:Generated_Source\PSoC4/SDCard_SPIM_SCB_IRQ.c **** *   Disables and removes the interrupt.
 121:Generated_Source\PSoC4/SDCard_SPIM_SCB_IRQ.c **** *
 122:Generated_Source\PSoC4/SDCard_SPIM_SCB_IRQ.c **** * Parameters:  
 123:Generated_Source\PSoC4/SDCard_SPIM_SCB_IRQ.c **** *   None
 124:Generated_Source\PSoC4/SDCard_SPIM_SCB_IRQ.c **** *
 125:Generated_Source\PSoC4/SDCard_SPIM_SCB_IRQ.c **** * Return:
 126:Generated_Source\PSoC4/SDCard_SPIM_SCB_IRQ.c **** *   None
 127:Generated_Source\PSoC4/SDCard_SPIM_SCB_IRQ.c **** *
ARM GAS  C:\Users\BREYAN~1\AppData\Local\Temp\ccnjh7gX.s 			page 5


 128:Generated_Source\PSoC4/SDCard_SPIM_SCB_IRQ.c **** *******************************************************************************/
 129:Generated_Source\PSoC4/SDCard_SPIM_SCB_IRQ.c **** void SDCard_SPIM_SCB_IRQ_Stop(void)
 130:Generated_Source\PSoC4/SDCard_SPIM_SCB_IRQ.c **** {
 102              		.loc 1 130 0
 103              		.cfi_startproc
 104 0000 80B5     		push	{r7, lr}
 105              		.cfi_def_cfa_offset 8
 106              		.cfi_offset 7, -8
 107              		.cfi_offset 14, -4
 108 0002 00AF     		add	r7, sp, #0
 109              		.cfi_def_cfa_register 7
 131:Generated_Source\PSoC4/SDCard_SPIM_SCB_IRQ.c ****     /* Disable this interrupt. */
 132:Generated_Source\PSoC4/SDCard_SPIM_SCB_IRQ.c ****     SDCard_SPIM_SCB_IRQ_Disable();
 110              		.loc 1 132 0
 111 0004 FFF7FEFF 		bl	SDCard_SPIM_SCB_IRQ_Disable
 133:Generated_Source\PSoC4/SDCard_SPIM_SCB_IRQ.c **** 
 134:Generated_Source\PSoC4/SDCard_SPIM_SCB_IRQ.c ****     /* Set the ISR to point to the passive one. */
 135:Generated_Source\PSoC4/SDCard_SPIM_SCB_IRQ.c ****     SDCard_SPIM_SCB_IRQ_SetVector(&IntDefaultHandler);
 112              		.loc 1 135 0
 113 0008 024B     		ldr	r3, .L6
 114 000a 181C     		mov	r0, r3
 115 000c FFF7FEFF 		bl	SDCard_SPIM_SCB_IRQ_SetVector
 136:Generated_Source\PSoC4/SDCard_SPIM_SCB_IRQ.c **** }
 116              		.loc 1 136 0
 117 0010 BD46     		mov	sp, r7
 118              		@ sp needed
 119 0012 80BD     		pop	{r7, pc}
 120              	.L7:
 121              		.align	2
 122              	.L6:
 123 0014 00000000 		.word	IntDefaultHandler
 124              		.cfi_endproc
 125              	.LFE2:
 126              		.size	SDCard_SPIM_SCB_IRQ_Stop, .-SDCard_SPIM_SCB_IRQ_Stop
 127              		.section	.text.SDCard_SPIM_SCB_IRQ_Interrupt,"ax",%progbits
 128              		.align	2
 129              		.global	SDCard_SPIM_SCB_IRQ_Interrupt
 130              		.code	16
 131              		.thumb_func
 132              		.type	SDCard_SPIM_SCB_IRQ_Interrupt, %function
 133              	SDCard_SPIM_SCB_IRQ_Interrupt:
 134              	.LFB3:
 137:Generated_Source\PSoC4/SDCard_SPIM_SCB_IRQ.c **** 
 138:Generated_Source\PSoC4/SDCard_SPIM_SCB_IRQ.c **** 
 139:Generated_Source\PSoC4/SDCard_SPIM_SCB_IRQ.c **** /*******************************************************************************
 140:Generated_Source\PSoC4/SDCard_SPIM_SCB_IRQ.c **** * Function Name: SDCard_SPIM_SCB_IRQ_Interrupt
 141:Generated_Source\PSoC4/SDCard_SPIM_SCB_IRQ.c **** ********************************************************************************
 142:Generated_Source\PSoC4/SDCard_SPIM_SCB_IRQ.c **** *
 143:Generated_Source\PSoC4/SDCard_SPIM_SCB_IRQ.c **** * Summary:
 144:Generated_Source\PSoC4/SDCard_SPIM_SCB_IRQ.c **** *   The default Interrupt Service Routine for SDCard_SPIM_SCB_IRQ.
 145:Generated_Source\PSoC4/SDCard_SPIM_SCB_IRQ.c **** *
 146:Generated_Source\PSoC4/SDCard_SPIM_SCB_IRQ.c **** *   Add custom code between the START and END comments to keep the next version
 147:Generated_Source\PSoC4/SDCard_SPIM_SCB_IRQ.c **** *   of this file from over-writing your code.
 148:Generated_Source\PSoC4/SDCard_SPIM_SCB_IRQ.c **** *
 149:Generated_Source\PSoC4/SDCard_SPIM_SCB_IRQ.c **** *   Note You may use either the default ISR by using this API, or you may define
 150:Generated_Source\PSoC4/SDCard_SPIM_SCB_IRQ.c **** *   your own separate ISR through ISR_StartEx().
 151:Generated_Source\PSoC4/SDCard_SPIM_SCB_IRQ.c **** *
ARM GAS  C:\Users\BREYAN~1\AppData\Local\Temp\ccnjh7gX.s 			page 6


 152:Generated_Source\PSoC4/SDCard_SPIM_SCB_IRQ.c **** * Parameters:  
 153:Generated_Source\PSoC4/SDCard_SPIM_SCB_IRQ.c **** *   None
 154:Generated_Source\PSoC4/SDCard_SPIM_SCB_IRQ.c **** *
 155:Generated_Source\PSoC4/SDCard_SPIM_SCB_IRQ.c **** * Return:
 156:Generated_Source\PSoC4/SDCard_SPIM_SCB_IRQ.c **** *   None
 157:Generated_Source\PSoC4/SDCard_SPIM_SCB_IRQ.c **** *
 158:Generated_Source\PSoC4/SDCard_SPIM_SCB_IRQ.c **** *******************************************************************************/
 159:Generated_Source\PSoC4/SDCard_SPIM_SCB_IRQ.c **** CY_ISR(SDCard_SPIM_SCB_IRQ_Interrupt)
 160:Generated_Source\PSoC4/SDCard_SPIM_SCB_IRQ.c **** {
 135              		.loc 1 160 0
 136              		.cfi_startproc
 137 0000 80B5     		push	{r7, lr}
 138              		.cfi_def_cfa_offset 8
 139              		.cfi_offset 7, -8
 140              		.cfi_offset 14, -4
 141 0002 00AF     		add	r7, sp, #0
 142              		.cfi_def_cfa_register 7
 161:Generated_Source\PSoC4/SDCard_SPIM_SCB_IRQ.c ****     #ifdef SDCard_SPIM_SCB_IRQ_INTERRUPT_INTERRUPT_CALLBACK
 162:Generated_Source\PSoC4/SDCard_SPIM_SCB_IRQ.c ****         SDCard_SPIM_SCB_IRQ_Interrupt_InterruptCallback();
 163:Generated_Source\PSoC4/SDCard_SPIM_SCB_IRQ.c ****     #endif /* SDCard_SPIM_SCB_IRQ_INTERRUPT_INTERRUPT_CALLBACK */ 
 164:Generated_Source\PSoC4/SDCard_SPIM_SCB_IRQ.c **** 
 165:Generated_Source\PSoC4/SDCard_SPIM_SCB_IRQ.c ****     /*  Place your Interrupt code here. */
 166:Generated_Source\PSoC4/SDCard_SPIM_SCB_IRQ.c ****     /* `#START SDCard_SPIM_SCB_IRQ_Interrupt` */
 167:Generated_Source\PSoC4/SDCard_SPIM_SCB_IRQ.c **** 
 168:Generated_Source\PSoC4/SDCard_SPIM_SCB_IRQ.c ****     /* `#END` */
 169:Generated_Source\PSoC4/SDCard_SPIM_SCB_IRQ.c **** }
 143              		.loc 1 169 0
 144 0004 BD46     		mov	sp, r7
 145              		@ sp needed
 146 0006 80BD     		pop	{r7, pc}
 147              		.cfi_endproc
 148              	.LFE3:
 149              		.size	SDCard_SPIM_SCB_IRQ_Interrupt, .-SDCard_SPIM_SCB_IRQ_Interrupt
 150              		.section	.text.SDCard_SPIM_SCB_IRQ_SetVector,"ax",%progbits
 151              		.align	2
 152              		.global	SDCard_SPIM_SCB_IRQ_SetVector
 153              		.code	16
 154              		.thumb_func
 155              		.type	SDCard_SPIM_SCB_IRQ_SetVector, %function
 156              	SDCard_SPIM_SCB_IRQ_SetVector:
 157              	.LFB4:
 170:Generated_Source\PSoC4/SDCard_SPIM_SCB_IRQ.c **** 
 171:Generated_Source\PSoC4/SDCard_SPIM_SCB_IRQ.c **** 
 172:Generated_Source\PSoC4/SDCard_SPIM_SCB_IRQ.c **** /*******************************************************************************
 173:Generated_Source\PSoC4/SDCard_SPIM_SCB_IRQ.c **** * Function Name: SDCard_SPIM_SCB_IRQ_SetVector
 174:Generated_Source\PSoC4/SDCard_SPIM_SCB_IRQ.c **** ********************************************************************************
 175:Generated_Source\PSoC4/SDCard_SPIM_SCB_IRQ.c **** *
 176:Generated_Source\PSoC4/SDCard_SPIM_SCB_IRQ.c **** * Summary:
 177:Generated_Source\PSoC4/SDCard_SPIM_SCB_IRQ.c **** *   Change the ISR vector for the Interrupt. Note calling SDCard_SPIM_SCB_IRQ_Start
 178:Generated_Source\PSoC4/SDCard_SPIM_SCB_IRQ.c **** *   will override any effect this method would have had. To set the vector 
 179:Generated_Source\PSoC4/SDCard_SPIM_SCB_IRQ.c **** *   before the component has been started use SDCard_SPIM_SCB_IRQ_StartEx instead.
 180:Generated_Source\PSoC4/SDCard_SPIM_SCB_IRQ.c **** * 
 181:Generated_Source\PSoC4/SDCard_SPIM_SCB_IRQ.c **** *   When defining ISR functions, the CY_ISR and CY_ISR_PROTO macros should be 
 182:Generated_Source\PSoC4/SDCard_SPIM_SCB_IRQ.c **** *   used to provide consistent definition across compilers:
 183:Generated_Source\PSoC4/SDCard_SPIM_SCB_IRQ.c **** *
 184:Generated_Source\PSoC4/SDCard_SPIM_SCB_IRQ.c **** *   Function definition example:
 185:Generated_Source\PSoC4/SDCard_SPIM_SCB_IRQ.c **** *   CY_ISR(MyISR)
ARM GAS  C:\Users\BREYAN~1\AppData\Local\Temp\ccnjh7gX.s 			page 7


 186:Generated_Source\PSoC4/SDCard_SPIM_SCB_IRQ.c **** *   {
 187:Generated_Source\PSoC4/SDCard_SPIM_SCB_IRQ.c **** *   }
 188:Generated_Source\PSoC4/SDCard_SPIM_SCB_IRQ.c **** *
 189:Generated_Source\PSoC4/SDCard_SPIM_SCB_IRQ.c **** *   Function prototype example:
 190:Generated_Source\PSoC4/SDCard_SPIM_SCB_IRQ.c **** *     CY_ISR_PROTO(MyISR);
 191:Generated_Source\PSoC4/SDCard_SPIM_SCB_IRQ.c **** *
 192:Generated_Source\PSoC4/SDCard_SPIM_SCB_IRQ.c **** * Parameters:
 193:Generated_Source\PSoC4/SDCard_SPIM_SCB_IRQ.c **** *   address: Address of the ISR to set in the interrupt vector table.
 194:Generated_Source\PSoC4/SDCard_SPIM_SCB_IRQ.c **** *
 195:Generated_Source\PSoC4/SDCard_SPIM_SCB_IRQ.c **** * Return:
 196:Generated_Source\PSoC4/SDCard_SPIM_SCB_IRQ.c **** *   None
 197:Generated_Source\PSoC4/SDCard_SPIM_SCB_IRQ.c **** *
 198:Generated_Source\PSoC4/SDCard_SPIM_SCB_IRQ.c **** *******************************************************************************/
 199:Generated_Source\PSoC4/SDCard_SPIM_SCB_IRQ.c **** void SDCard_SPIM_SCB_IRQ_SetVector(cyisraddress address)
 200:Generated_Source\PSoC4/SDCard_SPIM_SCB_IRQ.c **** {
 158              		.loc 1 200 0
 159              		.cfi_startproc
 160 0000 80B5     		push	{r7, lr}
 161              		.cfi_def_cfa_offset 8
 162              		.cfi_offset 7, -8
 163              		.cfi_offset 14, -4
 164 0002 82B0     		sub	sp, sp, #8
 165              		.cfi_def_cfa_offset 16
 166 0004 00AF     		add	r7, sp, #0
 167              		.cfi_def_cfa_register 7
 168 0006 7860     		str	r0, [r7, #4]
 201:Generated_Source\PSoC4/SDCard_SPIM_SCB_IRQ.c ****     CyRamVectors[CYINT_IRQ_BASE + SDCard_SPIM_SCB_IRQ__INTC_NUMBER] = address;
 169              		.loc 1 201 0
 170 0008 024B     		ldr	r3, .L10
 171 000a 7A68     		ldr	r2, [r7, #4]
 172 000c DA66     		str	r2, [r3, #108]
 202:Generated_Source\PSoC4/SDCard_SPIM_SCB_IRQ.c **** }
 173              		.loc 1 202 0
 174 000e BD46     		mov	sp, r7
 175 0010 02B0     		add	sp, sp, #8
 176              		@ sp needed
 177 0012 80BD     		pop	{r7, pc}
 178              	.L11:
 179              		.align	2
 180              	.L10:
 181 0014 00000000 		.word	CyRamVectors
 182              		.cfi_endproc
 183              	.LFE4:
 184              		.size	SDCard_SPIM_SCB_IRQ_SetVector, .-SDCard_SPIM_SCB_IRQ_SetVector
 185              		.section	.text.SDCard_SPIM_SCB_IRQ_GetVector,"ax",%progbits
 186              		.align	2
 187              		.global	SDCard_SPIM_SCB_IRQ_GetVector
 188              		.code	16
 189              		.thumb_func
 190              		.type	SDCard_SPIM_SCB_IRQ_GetVector, %function
 191              	SDCard_SPIM_SCB_IRQ_GetVector:
 192              	.LFB5:
 203:Generated_Source\PSoC4/SDCard_SPIM_SCB_IRQ.c **** 
 204:Generated_Source\PSoC4/SDCard_SPIM_SCB_IRQ.c **** 
 205:Generated_Source\PSoC4/SDCard_SPIM_SCB_IRQ.c **** /*******************************************************************************
 206:Generated_Source\PSoC4/SDCard_SPIM_SCB_IRQ.c **** * Function Name: SDCard_SPIM_SCB_IRQ_GetVector
 207:Generated_Source\PSoC4/SDCard_SPIM_SCB_IRQ.c **** ********************************************************************************
ARM GAS  C:\Users\BREYAN~1\AppData\Local\Temp\ccnjh7gX.s 			page 8


 208:Generated_Source\PSoC4/SDCard_SPIM_SCB_IRQ.c **** *
 209:Generated_Source\PSoC4/SDCard_SPIM_SCB_IRQ.c **** * Summary:
 210:Generated_Source\PSoC4/SDCard_SPIM_SCB_IRQ.c **** *   Gets the "address" of the current ISR vector for the Interrupt.
 211:Generated_Source\PSoC4/SDCard_SPIM_SCB_IRQ.c **** *
 212:Generated_Source\PSoC4/SDCard_SPIM_SCB_IRQ.c **** * Parameters:
 213:Generated_Source\PSoC4/SDCard_SPIM_SCB_IRQ.c **** *   None
 214:Generated_Source\PSoC4/SDCard_SPIM_SCB_IRQ.c **** *
 215:Generated_Source\PSoC4/SDCard_SPIM_SCB_IRQ.c **** * Return:
 216:Generated_Source\PSoC4/SDCard_SPIM_SCB_IRQ.c **** *   Address of the ISR in the interrupt vector table.
 217:Generated_Source\PSoC4/SDCard_SPIM_SCB_IRQ.c **** *
 218:Generated_Source\PSoC4/SDCard_SPIM_SCB_IRQ.c **** *******************************************************************************/
 219:Generated_Source\PSoC4/SDCard_SPIM_SCB_IRQ.c **** cyisraddress SDCard_SPIM_SCB_IRQ_GetVector(void)
 220:Generated_Source\PSoC4/SDCard_SPIM_SCB_IRQ.c **** {
 193              		.loc 1 220 0
 194              		.cfi_startproc
 195 0000 80B5     		push	{r7, lr}
 196              		.cfi_def_cfa_offset 8
 197              		.cfi_offset 7, -8
 198              		.cfi_offset 14, -4
 199 0002 00AF     		add	r7, sp, #0
 200              		.cfi_def_cfa_register 7
 221:Generated_Source\PSoC4/SDCard_SPIM_SCB_IRQ.c ****     return CyRamVectors[CYINT_IRQ_BASE + SDCard_SPIM_SCB_IRQ__INTC_NUMBER];
 201              		.loc 1 221 0
 202 0004 024B     		ldr	r3, .L14
 203 0006 DB6E     		ldr	r3, [r3, #108]
 222:Generated_Source\PSoC4/SDCard_SPIM_SCB_IRQ.c **** }
 204              		.loc 1 222 0
 205 0008 181C     		mov	r0, r3
 206 000a BD46     		mov	sp, r7
 207              		@ sp needed
 208 000c 80BD     		pop	{r7, pc}
 209              	.L15:
 210 000e C046     		.align	2
 211              	.L14:
 212 0010 00000000 		.word	CyRamVectors
 213              		.cfi_endproc
 214              	.LFE5:
 215              		.size	SDCard_SPIM_SCB_IRQ_GetVector, .-SDCard_SPIM_SCB_IRQ_GetVector
 216              		.section	.text.SDCard_SPIM_SCB_IRQ_SetPriority,"ax",%progbits
 217              		.align	2
 218              		.global	SDCard_SPIM_SCB_IRQ_SetPriority
 219              		.code	16
 220              		.thumb_func
 221              		.type	SDCard_SPIM_SCB_IRQ_SetPriority, %function
 222              	SDCard_SPIM_SCB_IRQ_SetPriority:
 223              	.LFB6:
 223:Generated_Source\PSoC4/SDCard_SPIM_SCB_IRQ.c **** 
 224:Generated_Source\PSoC4/SDCard_SPIM_SCB_IRQ.c **** 
 225:Generated_Source\PSoC4/SDCard_SPIM_SCB_IRQ.c **** /*******************************************************************************
 226:Generated_Source\PSoC4/SDCard_SPIM_SCB_IRQ.c **** * Function Name: SDCard_SPIM_SCB_IRQ_SetPriority
 227:Generated_Source\PSoC4/SDCard_SPIM_SCB_IRQ.c **** ********************************************************************************
 228:Generated_Source\PSoC4/SDCard_SPIM_SCB_IRQ.c **** *
 229:Generated_Source\PSoC4/SDCard_SPIM_SCB_IRQ.c **** * Summary:
 230:Generated_Source\PSoC4/SDCard_SPIM_SCB_IRQ.c **** *   Sets the Priority of the Interrupt. 
 231:Generated_Source\PSoC4/SDCard_SPIM_SCB_IRQ.c **** *
 232:Generated_Source\PSoC4/SDCard_SPIM_SCB_IRQ.c **** *   Note calling SDCard_SPIM_SCB_IRQ_Start or SDCard_SPIM_SCB_IRQ_StartEx will 
 233:Generated_Source\PSoC4/SDCard_SPIM_SCB_IRQ.c **** *   override any effect this API would have had. This API should only be called
ARM GAS  C:\Users\BREYAN~1\AppData\Local\Temp\ccnjh7gX.s 			page 9


 234:Generated_Source\PSoC4/SDCard_SPIM_SCB_IRQ.c **** *   after SDCard_SPIM_SCB_IRQ_Start or SDCard_SPIM_SCB_IRQ_StartEx has been called. 
 235:Generated_Source\PSoC4/SDCard_SPIM_SCB_IRQ.c **** *   To set the initial priority for the component, use the Design-Wide Resources
 236:Generated_Source\PSoC4/SDCard_SPIM_SCB_IRQ.c **** *   Interrupt Editor.
 237:Generated_Source\PSoC4/SDCard_SPIM_SCB_IRQ.c **** *
 238:Generated_Source\PSoC4/SDCard_SPIM_SCB_IRQ.c **** *   Note This API has no effect on Non-maskable interrupt NMI).
 239:Generated_Source\PSoC4/SDCard_SPIM_SCB_IRQ.c **** *
 240:Generated_Source\PSoC4/SDCard_SPIM_SCB_IRQ.c **** * Parameters:
 241:Generated_Source\PSoC4/SDCard_SPIM_SCB_IRQ.c **** *   priority: Priority of the interrupt, 0 being the highest priority
 242:Generated_Source\PSoC4/SDCard_SPIM_SCB_IRQ.c **** *             PSoC 3 and PSoC 5LP: Priority is from 0 to 7.
 243:Generated_Source\PSoC4/SDCard_SPIM_SCB_IRQ.c **** *             PSoC 4: Priority is from 0 to 3.
 244:Generated_Source\PSoC4/SDCard_SPIM_SCB_IRQ.c **** *
 245:Generated_Source\PSoC4/SDCard_SPIM_SCB_IRQ.c **** * Return:
 246:Generated_Source\PSoC4/SDCard_SPIM_SCB_IRQ.c **** *   None
 247:Generated_Source\PSoC4/SDCard_SPIM_SCB_IRQ.c **** *
 248:Generated_Source\PSoC4/SDCard_SPIM_SCB_IRQ.c **** *******************************************************************************/
 249:Generated_Source\PSoC4/SDCard_SPIM_SCB_IRQ.c **** void SDCard_SPIM_SCB_IRQ_SetPriority(uint8 priority)
 250:Generated_Source\PSoC4/SDCard_SPIM_SCB_IRQ.c **** {
 224              		.loc 1 250 0
 225              		.cfi_startproc
 226 0000 90B5     		push	{r4, r7, lr}
 227              		.cfi_def_cfa_offset 12
 228              		.cfi_offset 4, -12
 229              		.cfi_offset 7, -8
 230              		.cfi_offset 14, -4
 231 0002 85B0     		sub	sp, sp, #20
 232              		.cfi_def_cfa_offset 32
 233 0004 00AF     		add	r7, sp, #0
 234              		.cfi_def_cfa_register 7
 235 0006 021C     		mov	r2, r0
 236 0008 FB1D     		add	r3, r7, #7
 237 000a 1A70     		strb	r2, [r3]
 251:Generated_Source\PSoC4/SDCard_SPIM_SCB_IRQ.c **** 	uint8 interruptState;
 252:Generated_Source\PSoC4/SDCard_SPIM_SCB_IRQ.c ****     uint32 priorityOffset = ((SDCard_SPIM_SCB_IRQ__INTC_NUMBER % 4u) * 8u) + 6u;
 238              		.loc 1 252 0
 239 000c 1E23     		mov	r3, #30
 240 000e FB60     		str	r3, [r7, #12]
 253:Generated_Source\PSoC4/SDCard_SPIM_SCB_IRQ.c ****     
 254:Generated_Source\PSoC4/SDCard_SPIM_SCB_IRQ.c **** 	interruptState = CyEnterCriticalSection();
 241              		.loc 1 254 0
 242 0010 0B23     		mov	r3, #11
 243 0012 FC18     		add	r4, r7, r3
 244 0014 FFF7FEFF 		bl	CyEnterCriticalSection
 245 0018 031C     		mov	r3, r0
 246 001a 2370     		strb	r3, [r4]
 255:Generated_Source\PSoC4/SDCard_SPIM_SCB_IRQ.c ****     *SDCard_SPIM_SCB_IRQ_INTC_PRIOR = (*SDCard_SPIM_SCB_IRQ_INTC_PRIOR & (uint32)(~SDCard_SPIM_SCB_
 247              		.loc 1 255 0
 248 001c 0A4B     		ldr	r3, .L17
 249 001e 0A4A     		ldr	r2, .L17
 250 0020 1268     		ldr	r2, [r2]
 251 0022 9200     		lsl	r2, r2, #2
 252 0024 9108     		lsr	r1, r2, #2
 256:Generated_Source\PSoC4/SDCard_SPIM_SCB_IRQ.c ****                                     ((uint32)priority << priorityOffset);
 253              		.loc 1 256 0
 254 0026 FA1D     		add	r2, r7, #7
 255 0028 1078     		ldrb	r0, [r2]
 256 002a FA68     		ldr	r2, [r7, #12]
 257 002c 9040     		lsl	r0, r0, r2
ARM GAS  C:\Users\BREYAN~1\AppData\Local\Temp\ccnjh7gX.s 			page 10


 258 002e 021C     		mov	r2, r0
 255:Generated_Source\PSoC4/SDCard_SPIM_SCB_IRQ.c ****     *SDCard_SPIM_SCB_IRQ_INTC_PRIOR = (*SDCard_SPIM_SCB_IRQ_INTC_PRIOR & (uint32)(~SDCard_SPIM_SCB_
 259              		.loc 1 255 0
 260 0030 0A43     		orr	r2, r1
 261 0032 1A60     		str	r2, [r3]
 257:Generated_Source\PSoC4/SDCard_SPIM_SCB_IRQ.c **** 	CyExitCriticalSection(interruptState);
 262              		.loc 1 257 0
 263 0034 0B23     		mov	r3, #11
 264 0036 FB18     		add	r3, r7, r3
 265 0038 1B78     		ldrb	r3, [r3]
 266 003a 181C     		mov	r0, r3
 267 003c FFF7FEFF 		bl	CyExitCriticalSection
 258:Generated_Source\PSoC4/SDCard_SPIM_SCB_IRQ.c **** }
 268              		.loc 1 258 0
 269 0040 BD46     		mov	sp, r7
 270 0042 05B0     		add	sp, sp, #20
 271              		@ sp needed
 272 0044 90BD     		pop	{r4, r7, pc}
 273              	.L18:
 274 0046 C046     		.align	2
 275              	.L17:
 276 0048 08E400E0 		.word	-536812536
 277              		.cfi_endproc
 278              	.LFE6:
 279              		.size	SDCard_SPIM_SCB_IRQ_SetPriority, .-SDCard_SPIM_SCB_IRQ_SetPriority
 280              		.section	.text.SDCard_SPIM_SCB_IRQ_GetPriority,"ax",%progbits
 281              		.align	2
 282              		.global	SDCard_SPIM_SCB_IRQ_GetPriority
 283              		.code	16
 284              		.thumb_func
 285              		.type	SDCard_SPIM_SCB_IRQ_GetPriority, %function
 286              	SDCard_SPIM_SCB_IRQ_GetPriority:
 287              	.LFB7:
 259:Generated_Source\PSoC4/SDCard_SPIM_SCB_IRQ.c **** 
 260:Generated_Source\PSoC4/SDCard_SPIM_SCB_IRQ.c **** 
 261:Generated_Source\PSoC4/SDCard_SPIM_SCB_IRQ.c **** /*******************************************************************************
 262:Generated_Source\PSoC4/SDCard_SPIM_SCB_IRQ.c **** * Function Name: SDCard_SPIM_SCB_IRQ_GetPriority
 263:Generated_Source\PSoC4/SDCard_SPIM_SCB_IRQ.c **** ********************************************************************************
 264:Generated_Source\PSoC4/SDCard_SPIM_SCB_IRQ.c **** *
 265:Generated_Source\PSoC4/SDCard_SPIM_SCB_IRQ.c **** * Summary:
 266:Generated_Source\PSoC4/SDCard_SPIM_SCB_IRQ.c **** *   Gets the Priority of the Interrupt.
 267:Generated_Source\PSoC4/SDCard_SPIM_SCB_IRQ.c **** *
 268:Generated_Source\PSoC4/SDCard_SPIM_SCB_IRQ.c **** * Parameters:
 269:Generated_Source\PSoC4/SDCard_SPIM_SCB_IRQ.c **** *   None
 270:Generated_Source\PSoC4/SDCard_SPIM_SCB_IRQ.c **** *
 271:Generated_Source\PSoC4/SDCard_SPIM_SCB_IRQ.c **** * Return:
 272:Generated_Source\PSoC4/SDCard_SPIM_SCB_IRQ.c **** *   Priority of the interrupt, 0 being the highest priority
 273:Generated_Source\PSoC4/SDCard_SPIM_SCB_IRQ.c **** *    PSoC 3 and PSoC 5LP: Priority is from 0 to 7.
 274:Generated_Source\PSoC4/SDCard_SPIM_SCB_IRQ.c **** *    PSoC 4: Priority is from 0 to 3.
 275:Generated_Source\PSoC4/SDCard_SPIM_SCB_IRQ.c **** *
 276:Generated_Source\PSoC4/SDCard_SPIM_SCB_IRQ.c **** *******************************************************************************/
 277:Generated_Source\PSoC4/SDCard_SPIM_SCB_IRQ.c **** uint8 SDCard_SPIM_SCB_IRQ_GetPriority(void)
 278:Generated_Source\PSoC4/SDCard_SPIM_SCB_IRQ.c **** {
 288              		.loc 1 278 0
 289              		.cfi_startproc
 290 0000 80B5     		push	{r7, lr}
 291              		.cfi_def_cfa_offset 8
ARM GAS  C:\Users\BREYAN~1\AppData\Local\Temp\ccnjh7gX.s 			page 11


 292              		.cfi_offset 7, -8
 293              		.cfi_offset 14, -4
 294 0002 82B0     		sub	sp, sp, #8
 295              		.cfi_def_cfa_offset 16
 296 0004 00AF     		add	r7, sp, #0
 297              		.cfi_def_cfa_register 7
 279:Generated_Source\PSoC4/SDCard_SPIM_SCB_IRQ.c ****     uint32 priority;
 280:Generated_Source\PSoC4/SDCard_SPIM_SCB_IRQ.c **** 	uint32 priorityOffset = ((SDCard_SPIM_SCB_IRQ__INTC_NUMBER % 4u) * 8u) + 6u;
 298              		.loc 1 280 0
 299 0006 1E23     		mov	r3, #30
 300 0008 7B60     		str	r3, [r7, #4]
 281:Generated_Source\PSoC4/SDCard_SPIM_SCB_IRQ.c **** 
 282:Generated_Source\PSoC4/SDCard_SPIM_SCB_IRQ.c ****     priority = (*SDCard_SPIM_SCB_IRQ_INTC_PRIOR & SDCard_SPIM_SCB_IRQ__INTC_PRIOR_MASK) >> priority
 301              		.loc 1 282 0
 302 000a 074B     		ldr	r3, .L21
 303 000c 1B68     		ldr	r3, [r3]
 304 000e 9B0F     		lsr	r3, r3, #30
 305 0010 9A07     		lsl	r2, r3, #30
 306 0012 7B68     		ldr	r3, [r7, #4]
 307 0014 DA40     		lsr	r2, r2, r3
 308 0016 131C     		mov	r3, r2
 309 0018 3B60     		str	r3, [r7]
 283:Generated_Source\PSoC4/SDCard_SPIM_SCB_IRQ.c **** 
 284:Generated_Source\PSoC4/SDCard_SPIM_SCB_IRQ.c ****     return (uint8)priority;
 310              		.loc 1 284 0
 311 001a 3B68     		ldr	r3, [r7]
 312 001c DBB2     		uxtb	r3, r3
 285:Generated_Source\PSoC4/SDCard_SPIM_SCB_IRQ.c **** }
 313              		.loc 1 285 0
 314 001e 181C     		mov	r0, r3
 315 0020 BD46     		mov	sp, r7
 316 0022 02B0     		add	sp, sp, #8
 317              		@ sp needed
 318 0024 80BD     		pop	{r7, pc}
 319              	.L22:
 320 0026 C046     		.align	2
 321              	.L21:
 322 0028 08E400E0 		.word	-536812536
 323              		.cfi_endproc
 324              	.LFE7:
 325              		.size	SDCard_SPIM_SCB_IRQ_GetPriority, .-SDCard_SPIM_SCB_IRQ_GetPriority
 326              		.section	.text.SDCard_SPIM_SCB_IRQ_Enable,"ax",%progbits
 327              		.align	2
 328              		.global	SDCard_SPIM_SCB_IRQ_Enable
 329              		.code	16
 330              		.thumb_func
 331              		.type	SDCard_SPIM_SCB_IRQ_Enable, %function
 332              	SDCard_SPIM_SCB_IRQ_Enable:
 333              	.LFB8:
 286:Generated_Source\PSoC4/SDCard_SPIM_SCB_IRQ.c **** 
 287:Generated_Source\PSoC4/SDCard_SPIM_SCB_IRQ.c **** 
 288:Generated_Source\PSoC4/SDCard_SPIM_SCB_IRQ.c **** /*******************************************************************************
 289:Generated_Source\PSoC4/SDCard_SPIM_SCB_IRQ.c **** * Function Name: SDCard_SPIM_SCB_IRQ_Enable
 290:Generated_Source\PSoC4/SDCard_SPIM_SCB_IRQ.c **** ********************************************************************************
 291:Generated_Source\PSoC4/SDCard_SPIM_SCB_IRQ.c **** *
 292:Generated_Source\PSoC4/SDCard_SPIM_SCB_IRQ.c **** * Summary:
 293:Generated_Source\PSoC4/SDCard_SPIM_SCB_IRQ.c **** *   Enables the interrupt to the interrupt controller. Do not call this function
ARM GAS  C:\Users\BREYAN~1\AppData\Local\Temp\ccnjh7gX.s 			page 12


 294:Generated_Source\PSoC4/SDCard_SPIM_SCB_IRQ.c **** *   unless ISR_Start() has been called or the functionality of the ISR_Start() 
 295:Generated_Source\PSoC4/SDCard_SPIM_SCB_IRQ.c **** *   function, which sets the vector and the priority, has been called.
 296:Generated_Source\PSoC4/SDCard_SPIM_SCB_IRQ.c **** *
 297:Generated_Source\PSoC4/SDCard_SPIM_SCB_IRQ.c **** * Parameters:
 298:Generated_Source\PSoC4/SDCard_SPIM_SCB_IRQ.c **** *   None
 299:Generated_Source\PSoC4/SDCard_SPIM_SCB_IRQ.c **** *
 300:Generated_Source\PSoC4/SDCard_SPIM_SCB_IRQ.c **** * Return:
 301:Generated_Source\PSoC4/SDCard_SPIM_SCB_IRQ.c **** *   None
 302:Generated_Source\PSoC4/SDCard_SPIM_SCB_IRQ.c **** *
 303:Generated_Source\PSoC4/SDCard_SPIM_SCB_IRQ.c **** *******************************************************************************/
 304:Generated_Source\PSoC4/SDCard_SPIM_SCB_IRQ.c **** void SDCard_SPIM_SCB_IRQ_Enable(void)
 305:Generated_Source\PSoC4/SDCard_SPIM_SCB_IRQ.c **** {
 334              		.loc 1 305 0
 335              		.cfi_startproc
 336 0000 80B5     		push	{r7, lr}
 337              		.cfi_def_cfa_offset 8
 338              		.cfi_offset 7, -8
 339              		.cfi_offset 14, -4
 340 0002 00AF     		add	r7, sp, #0
 341              		.cfi_def_cfa_register 7
 306:Generated_Source\PSoC4/SDCard_SPIM_SCB_IRQ.c ****     /* Enable the general interrupt. */
 307:Generated_Source\PSoC4/SDCard_SPIM_SCB_IRQ.c ****     *SDCard_SPIM_SCB_IRQ_INTC_SET_EN = SDCard_SPIM_SCB_IRQ__INTC_MASK;
 342              		.loc 1 307 0
 343 0004 024B     		ldr	r3, .L24
 344 0006 8022     		mov	r2, #128
 345 0008 1201     		lsl	r2, r2, #4
 346 000a 1A60     		str	r2, [r3]
 308:Generated_Source\PSoC4/SDCard_SPIM_SCB_IRQ.c **** }
 347              		.loc 1 308 0
 348 000c BD46     		mov	sp, r7
 349              		@ sp needed
 350 000e 80BD     		pop	{r7, pc}
 351              	.L25:
 352              		.align	2
 353              	.L24:
 354 0010 00E100E0 		.word	-536813312
 355              		.cfi_endproc
 356              	.LFE8:
 357              		.size	SDCard_SPIM_SCB_IRQ_Enable, .-SDCard_SPIM_SCB_IRQ_Enable
 358              		.section	.text.SDCard_SPIM_SCB_IRQ_GetState,"ax",%progbits
 359              		.align	2
 360              		.global	SDCard_SPIM_SCB_IRQ_GetState
 361              		.code	16
 362              		.thumb_func
 363              		.type	SDCard_SPIM_SCB_IRQ_GetState, %function
 364              	SDCard_SPIM_SCB_IRQ_GetState:
 365              	.LFB9:
 309:Generated_Source\PSoC4/SDCard_SPIM_SCB_IRQ.c **** 
 310:Generated_Source\PSoC4/SDCard_SPIM_SCB_IRQ.c **** 
 311:Generated_Source\PSoC4/SDCard_SPIM_SCB_IRQ.c **** /*******************************************************************************
 312:Generated_Source\PSoC4/SDCard_SPIM_SCB_IRQ.c **** * Function Name: SDCard_SPIM_SCB_IRQ_GetState
 313:Generated_Source\PSoC4/SDCard_SPIM_SCB_IRQ.c **** ********************************************************************************
 314:Generated_Source\PSoC4/SDCard_SPIM_SCB_IRQ.c **** *
 315:Generated_Source\PSoC4/SDCard_SPIM_SCB_IRQ.c **** * Summary:
 316:Generated_Source\PSoC4/SDCard_SPIM_SCB_IRQ.c **** *   Gets the state (enabled, disabled) of the Interrupt.
 317:Generated_Source\PSoC4/SDCard_SPIM_SCB_IRQ.c **** *
 318:Generated_Source\PSoC4/SDCard_SPIM_SCB_IRQ.c **** * Parameters:
ARM GAS  C:\Users\BREYAN~1\AppData\Local\Temp\ccnjh7gX.s 			page 13


 319:Generated_Source\PSoC4/SDCard_SPIM_SCB_IRQ.c **** *   None
 320:Generated_Source\PSoC4/SDCard_SPIM_SCB_IRQ.c **** *
 321:Generated_Source\PSoC4/SDCard_SPIM_SCB_IRQ.c **** * Return:
 322:Generated_Source\PSoC4/SDCard_SPIM_SCB_IRQ.c **** *   1 if enabled, 0 if disabled.
 323:Generated_Source\PSoC4/SDCard_SPIM_SCB_IRQ.c **** *
 324:Generated_Source\PSoC4/SDCard_SPIM_SCB_IRQ.c **** *******************************************************************************/
 325:Generated_Source\PSoC4/SDCard_SPIM_SCB_IRQ.c **** uint8 SDCard_SPIM_SCB_IRQ_GetState(void)
 326:Generated_Source\PSoC4/SDCard_SPIM_SCB_IRQ.c **** {
 366              		.loc 1 326 0
 367              		.cfi_startproc
 368 0000 80B5     		push	{r7, lr}
 369              		.cfi_def_cfa_offset 8
 370              		.cfi_offset 7, -8
 371              		.cfi_offset 14, -4
 372 0002 00AF     		add	r7, sp, #0
 373              		.cfi_def_cfa_register 7
 327:Generated_Source\PSoC4/SDCard_SPIM_SCB_IRQ.c ****     /* Get the state of the general interrupt. */
 328:Generated_Source\PSoC4/SDCard_SPIM_SCB_IRQ.c ****     return ((*SDCard_SPIM_SCB_IRQ_INTC_SET_EN & (uint32)SDCard_SPIM_SCB_IRQ__INTC_MASK) != 0u) ? 1u
 374              		.loc 1 328 0
 375 0004 054B     		ldr	r3, .L30
 376 0006 1A68     		ldr	r2, [r3]
 377 0008 8023     		mov	r3, #128
 378 000a 1B01     		lsl	r3, r3, #4
 379 000c 1340     		and	r3, r2
 380 000e 01D0     		beq	.L27
 381              		.loc 1 328 0 is_stmt 0 discriminator 1
 382 0010 0123     		mov	r3, #1
 383 0012 00E0     		b	.L28
 384              	.L27:
 385              		.loc 1 328 0 discriminator 2
 386 0014 0023     		mov	r3, #0
 387              	.L28:
 329:Generated_Source\PSoC4/SDCard_SPIM_SCB_IRQ.c **** }
 388              		.loc 1 329 0 is_stmt 1 discriminator 4
 389 0016 181C     		mov	r0, r3
 390 0018 BD46     		mov	sp, r7
 391              		@ sp needed
 392 001a 80BD     		pop	{r7, pc}
 393              	.L31:
 394              		.align	2
 395              	.L30:
 396 001c 00E100E0 		.word	-536813312
 397              		.cfi_endproc
 398              	.LFE9:
 399              		.size	SDCard_SPIM_SCB_IRQ_GetState, .-SDCard_SPIM_SCB_IRQ_GetState
 400              		.section	.text.SDCard_SPIM_SCB_IRQ_Disable,"ax",%progbits
 401              		.align	2
 402              		.global	SDCard_SPIM_SCB_IRQ_Disable
 403              		.code	16
 404              		.thumb_func
 405              		.type	SDCard_SPIM_SCB_IRQ_Disable, %function
 406              	SDCard_SPIM_SCB_IRQ_Disable:
 407              	.LFB10:
 330:Generated_Source\PSoC4/SDCard_SPIM_SCB_IRQ.c **** 
 331:Generated_Source\PSoC4/SDCard_SPIM_SCB_IRQ.c **** 
 332:Generated_Source\PSoC4/SDCard_SPIM_SCB_IRQ.c **** /*******************************************************************************
 333:Generated_Source\PSoC4/SDCard_SPIM_SCB_IRQ.c **** * Function Name: SDCard_SPIM_SCB_IRQ_Disable
ARM GAS  C:\Users\BREYAN~1\AppData\Local\Temp\ccnjh7gX.s 			page 14


 334:Generated_Source\PSoC4/SDCard_SPIM_SCB_IRQ.c **** ********************************************************************************
 335:Generated_Source\PSoC4/SDCard_SPIM_SCB_IRQ.c **** *
 336:Generated_Source\PSoC4/SDCard_SPIM_SCB_IRQ.c **** * Summary:
 337:Generated_Source\PSoC4/SDCard_SPIM_SCB_IRQ.c **** *   Disables the Interrupt in the interrupt controller.
 338:Generated_Source\PSoC4/SDCard_SPIM_SCB_IRQ.c **** *
 339:Generated_Source\PSoC4/SDCard_SPIM_SCB_IRQ.c **** * Parameters:
 340:Generated_Source\PSoC4/SDCard_SPIM_SCB_IRQ.c **** *   None
 341:Generated_Source\PSoC4/SDCard_SPIM_SCB_IRQ.c **** *
 342:Generated_Source\PSoC4/SDCard_SPIM_SCB_IRQ.c **** * Return:
 343:Generated_Source\PSoC4/SDCard_SPIM_SCB_IRQ.c **** *   None
 344:Generated_Source\PSoC4/SDCard_SPIM_SCB_IRQ.c **** *
 345:Generated_Source\PSoC4/SDCard_SPIM_SCB_IRQ.c **** *******************************************************************************/
 346:Generated_Source\PSoC4/SDCard_SPIM_SCB_IRQ.c **** void SDCard_SPIM_SCB_IRQ_Disable(void)
 347:Generated_Source\PSoC4/SDCard_SPIM_SCB_IRQ.c **** {
 408              		.loc 1 347 0
 409              		.cfi_startproc
 410 0000 80B5     		push	{r7, lr}
 411              		.cfi_def_cfa_offset 8
 412              		.cfi_offset 7, -8
 413              		.cfi_offset 14, -4
 414 0002 00AF     		add	r7, sp, #0
 415              		.cfi_def_cfa_register 7
 348:Generated_Source\PSoC4/SDCard_SPIM_SCB_IRQ.c ****     /* Disable the general interrupt. */
 349:Generated_Source\PSoC4/SDCard_SPIM_SCB_IRQ.c ****     *SDCard_SPIM_SCB_IRQ_INTC_CLR_EN = SDCard_SPIM_SCB_IRQ__INTC_MASK;
 416              		.loc 1 349 0
 417 0004 024B     		ldr	r3, .L33
 418 0006 8022     		mov	r2, #128
 419 0008 1201     		lsl	r2, r2, #4
 420 000a 1A60     		str	r2, [r3]
 350:Generated_Source\PSoC4/SDCard_SPIM_SCB_IRQ.c **** }
 421              		.loc 1 350 0
 422 000c BD46     		mov	sp, r7
 423              		@ sp needed
 424 000e 80BD     		pop	{r7, pc}
 425              	.L34:
 426              		.align	2
 427              	.L33:
 428 0010 80E100E0 		.word	-536813184
 429              		.cfi_endproc
 430              	.LFE10:
 431              		.size	SDCard_SPIM_SCB_IRQ_Disable, .-SDCard_SPIM_SCB_IRQ_Disable
 432              		.section	.text.SDCard_SPIM_SCB_IRQ_SetPending,"ax",%progbits
 433              		.align	2
 434              		.global	SDCard_SPIM_SCB_IRQ_SetPending
 435              		.code	16
 436              		.thumb_func
 437              		.type	SDCard_SPIM_SCB_IRQ_SetPending, %function
 438              	SDCard_SPIM_SCB_IRQ_SetPending:
 439              	.LFB11:
 351:Generated_Source\PSoC4/SDCard_SPIM_SCB_IRQ.c **** 
 352:Generated_Source\PSoC4/SDCard_SPIM_SCB_IRQ.c **** 
 353:Generated_Source\PSoC4/SDCard_SPIM_SCB_IRQ.c **** /*******************************************************************************
 354:Generated_Source\PSoC4/SDCard_SPIM_SCB_IRQ.c **** * Function Name: SDCard_SPIM_SCB_IRQ_SetPending
 355:Generated_Source\PSoC4/SDCard_SPIM_SCB_IRQ.c **** ********************************************************************************
 356:Generated_Source\PSoC4/SDCard_SPIM_SCB_IRQ.c **** *
 357:Generated_Source\PSoC4/SDCard_SPIM_SCB_IRQ.c **** * Summary:
 358:Generated_Source\PSoC4/SDCard_SPIM_SCB_IRQ.c **** *   Causes the Interrupt to enter the pending state, a software method of
ARM GAS  C:\Users\BREYAN~1\AppData\Local\Temp\ccnjh7gX.s 			page 15


 359:Generated_Source\PSoC4/SDCard_SPIM_SCB_IRQ.c **** *   generating the interrupt.
 360:Generated_Source\PSoC4/SDCard_SPIM_SCB_IRQ.c **** *
 361:Generated_Source\PSoC4/SDCard_SPIM_SCB_IRQ.c **** * Parameters:
 362:Generated_Source\PSoC4/SDCard_SPIM_SCB_IRQ.c **** *   None
 363:Generated_Source\PSoC4/SDCard_SPIM_SCB_IRQ.c **** *
 364:Generated_Source\PSoC4/SDCard_SPIM_SCB_IRQ.c **** * Return:
 365:Generated_Source\PSoC4/SDCard_SPIM_SCB_IRQ.c **** *   None
 366:Generated_Source\PSoC4/SDCard_SPIM_SCB_IRQ.c **** *
 367:Generated_Source\PSoC4/SDCard_SPIM_SCB_IRQ.c **** * Side Effects:
 368:Generated_Source\PSoC4/SDCard_SPIM_SCB_IRQ.c **** *   If interrupts are enabled and the interrupt is set up properly, the ISR is
 369:Generated_Source\PSoC4/SDCard_SPIM_SCB_IRQ.c **** *   entered (depending on the priority of this interrupt and other pending 
 370:Generated_Source\PSoC4/SDCard_SPIM_SCB_IRQ.c **** *   interrupts).
 371:Generated_Source\PSoC4/SDCard_SPIM_SCB_IRQ.c **** *
 372:Generated_Source\PSoC4/SDCard_SPIM_SCB_IRQ.c **** *******************************************************************************/
 373:Generated_Source\PSoC4/SDCard_SPIM_SCB_IRQ.c **** void SDCard_SPIM_SCB_IRQ_SetPending(void)
 374:Generated_Source\PSoC4/SDCard_SPIM_SCB_IRQ.c **** {
 440              		.loc 1 374 0
 441              		.cfi_startproc
 442 0000 80B5     		push	{r7, lr}
 443              		.cfi_def_cfa_offset 8
 444              		.cfi_offset 7, -8
 445              		.cfi_offset 14, -4
 446 0002 00AF     		add	r7, sp, #0
 447              		.cfi_def_cfa_register 7
 375:Generated_Source\PSoC4/SDCard_SPIM_SCB_IRQ.c ****     *SDCard_SPIM_SCB_IRQ_INTC_SET_PD = SDCard_SPIM_SCB_IRQ__INTC_MASK;
 448              		.loc 1 375 0
 449 0004 024B     		ldr	r3, .L36
 450 0006 8022     		mov	r2, #128
 451 0008 1201     		lsl	r2, r2, #4
 452 000a 1A60     		str	r2, [r3]
 376:Generated_Source\PSoC4/SDCard_SPIM_SCB_IRQ.c **** }
 453              		.loc 1 376 0
 454 000c BD46     		mov	sp, r7
 455              		@ sp needed
 456 000e 80BD     		pop	{r7, pc}
 457              	.L37:
 458              		.align	2
 459              	.L36:
 460 0010 00E200E0 		.word	-536813056
 461              		.cfi_endproc
 462              	.LFE11:
 463              		.size	SDCard_SPIM_SCB_IRQ_SetPending, .-SDCard_SPIM_SCB_IRQ_SetPending
 464              		.section	.text.SDCard_SPIM_SCB_IRQ_ClearPending,"ax",%progbits
 465              		.align	2
 466              		.global	SDCard_SPIM_SCB_IRQ_ClearPending
 467              		.code	16
 468              		.thumb_func
 469              		.type	SDCard_SPIM_SCB_IRQ_ClearPending, %function
 470              	SDCard_SPIM_SCB_IRQ_ClearPending:
 471              	.LFB12:
 377:Generated_Source\PSoC4/SDCard_SPIM_SCB_IRQ.c **** 
 378:Generated_Source\PSoC4/SDCard_SPIM_SCB_IRQ.c **** 
 379:Generated_Source\PSoC4/SDCard_SPIM_SCB_IRQ.c **** /*******************************************************************************
 380:Generated_Source\PSoC4/SDCard_SPIM_SCB_IRQ.c **** * Function Name: SDCard_SPIM_SCB_IRQ_ClearPending
 381:Generated_Source\PSoC4/SDCard_SPIM_SCB_IRQ.c **** ********************************************************************************
 382:Generated_Source\PSoC4/SDCard_SPIM_SCB_IRQ.c **** *
 383:Generated_Source\PSoC4/SDCard_SPIM_SCB_IRQ.c **** * Summary:
ARM GAS  C:\Users\BREYAN~1\AppData\Local\Temp\ccnjh7gX.s 			page 16


 384:Generated_Source\PSoC4/SDCard_SPIM_SCB_IRQ.c **** *   Clears a pending interrupt in the interrupt controller.
 385:Generated_Source\PSoC4/SDCard_SPIM_SCB_IRQ.c **** *
 386:Generated_Source\PSoC4/SDCard_SPIM_SCB_IRQ.c **** *   Note Some interrupt sources are clear-on-read and require the block 
 387:Generated_Source\PSoC4/SDCard_SPIM_SCB_IRQ.c **** *   interrupt/status register to be read/cleared with the appropriate block API 
 388:Generated_Source\PSoC4/SDCard_SPIM_SCB_IRQ.c **** *   (GPIO, UART, and so on). Otherwise the ISR will continue to remain in 
 389:Generated_Source\PSoC4/SDCard_SPIM_SCB_IRQ.c **** *   pending state even though the interrupt itself is cleared using this API.
 390:Generated_Source\PSoC4/SDCard_SPIM_SCB_IRQ.c **** *
 391:Generated_Source\PSoC4/SDCard_SPIM_SCB_IRQ.c **** * Parameters:
 392:Generated_Source\PSoC4/SDCard_SPIM_SCB_IRQ.c **** *   None
 393:Generated_Source\PSoC4/SDCard_SPIM_SCB_IRQ.c **** *
 394:Generated_Source\PSoC4/SDCard_SPIM_SCB_IRQ.c **** * Return:
 395:Generated_Source\PSoC4/SDCard_SPIM_SCB_IRQ.c **** *   None
 396:Generated_Source\PSoC4/SDCard_SPIM_SCB_IRQ.c **** *
 397:Generated_Source\PSoC4/SDCard_SPIM_SCB_IRQ.c **** *******************************************************************************/
 398:Generated_Source\PSoC4/SDCard_SPIM_SCB_IRQ.c **** void SDCard_SPIM_SCB_IRQ_ClearPending(void)
 399:Generated_Source\PSoC4/SDCard_SPIM_SCB_IRQ.c **** {
 472              		.loc 1 399 0
 473              		.cfi_startproc
 474 0000 80B5     		push	{r7, lr}
 475              		.cfi_def_cfa_offset 8
 476              		.cfi_offset 7, -8
 477              		.cfi_offset 14, -4
 478 0002 00AF     		add	r7, sp, #0
 479              		.cfi_def_cfa_register 7
 400:Generated_Source\PSoC4/SDCard_SPIM_SCB_IRQ.c ****     *SDCard_SPIM_SCB_IRQ_INTC_CLR_PD = SDCard_SPIM_SCB_IRQ__INTC_MASK;
 480              		.loc 1 400 0
 481 0004 024B     		ldr	r3, .L39
 482 0006 8022     		mov	r2, #128
 483 0008 1201     		lsl	r2, r2, #4
 484 000a 1A60     		str	r2, [r3]
 401:Generated_Source\PSoC4/SDCard_SPIM_SCB_IRQ.c **** }
 485              		.loc 1 401 0
 486 000c BD46     		mov	sp, r7
 487              		@ sp needed
 488 000e 80BD     		pop	{r7, pc}
 489              	.L40:
 490              		.align	2
 491              	.L39:
 492 0010 80E200E0 		.word	-536812928
 493              		.cfi_endproc
 494              	.LFE12:
 495              		.size	SDCard_SPIM_SCB_IRQ_ClearPending, .-SDCard_SPIM_SCB_IRQ_ClearPending
 496              		.text
 497              	.Letext0:
 498              		.file 2 "Generated_Source\\PSoC4/cytypes.h"