ARM GAS  C:\Users\BREYAN~1\AppData\Local\Temp\cczBBs9L.s 			page 1


   1              		.cpu cortex-m0
   2              		.fpu softvfp
   3              		.eabi_attribute 20, 1
   4              		.eabi_attribute 21, 1
   5              		.eabi_attribute 23, 3
   6              		.eabi_attribute 24, 1
   7              		.eabi_attribute 25, 1
   8              		.eabi_attribute 26, 1
   9              		.eabi_attribute 30, 6
  10              		.eabi_attribute 34, 0
  11              		.eabi_attribute 18, 4
  12              		.code	16
  13              		.file	"SDCard_SPI.c"
  14              		.text
  15              	.Ltext0:
  16              		.cfi_sections	.debug_frame
  17              		.section	.text.SDCard_InitHdwr,"ax",%progbits
  18              		.align	2
  19              		.global	SDCard_InitHdwr
  20              		.code	16
  21              		.thumb_func
  22              		.type	SDCard_InitHdwr, %function
  23              	SDCard_InitHdwr:
  24              	.LFB34:
  25              		.file 1 "Generated_Source\\PSoC4\\SDCard_SPI.c"
   1:Generated_Source\PSoC4/SDCard_SPI.c **** /****************************************************************************
   2:Generated_Source\PSoC4/SDCard_SPI.c **** *****************************************************************************
   3:Generated_Source\PSoC4/SDCard_SPI.c ****   FILENAME: SDCard_SPI.c
   4:Generated_Source\PSoC4/SDCard_SPI.c ****   Version 0.0
   5:Generated_Source\PSoC4/SDCard_SPI.c ****   
   6:Generated_Source\PSoC4/SDCard_SPI.c **** 
   7:Generated_Source\PSoC4/SDCard_SPI.c ****   DESCRIPTION: SDCard User Module software implementation file
   8:Generated_Source\PSoC4/SDCard_SPI.c ****                for the low level SPI hardware.
   9:Generated_Source\PSoC4/SDCard_SPI.c **** 
  10:Generated_Source\PSoC4/SDCard_SPI.c ****   NOTE: User Module APIs conform to the fastcall16 convention for marshalling
  11:Generated_Source\PSoC4/SDCard_SPI.c ****         arguments and observe the associated "Registers are volatile" policy.
  12:Generated_Source\PSoC4/SDCard_SPI.c ****         This means it is the caller's responsibility to preserve any values
  13:Generated_Source\PSoC4/SDCard_SPI.c ****         in the X and A registers that are still needed after the API functions
  14:Generated_Source\PSoC4/SDCard_SPI.c ****         returns. For Large Memory Model devices it is also the caller's 
  15:Generated_Source\PSoC4/SDCard_SPI.c ****         responsibility to perserve any value in the CUR_PP, IDX_PP, MVR_PP and 
  16:Generated_Source\PSoC4/SDCard_SPI.c ****         MVW_PP registers. Even though some of these registers may not be modified
  17:Generated_Source\PSoC4/SDCard_SPI.c ****         now, there is no guarantee that will remain the case in future releases.
  18:Generated_Source\PSoC4/SDCard_SPI.c **** -----------------------------------------------------------------------------
  19:Generated_Source\PSoC4/SDCard_SPI.c ****   Copyright (c) Cypress Semiconductor 2013-14. All Rights Reserved.
  20:Generated_Source\PSoC4/SDCard_SPI.c **** *****************************************************************************
  21:Generated_Source\PSoC4/SDCard_SPI.c **** *****************************************************************************
  22:Generated_Source\PSoC4/SDCard_SPI.c **** */
  23:Generated_Source\PSoC4/SDCard_SPI.c **** 
  24:Generated_Source\PSoC4/SDCard_SPI.c **** #include "device.h"
  25:Generated_Source\PSoC4/SDCard_SPI.c **** #include "SDCard_SPI.h"
  26:Generated_Source\PSoC4/SDCard_SPI.c **** 
  27:Generated_Source\PSoC4/SDCard_SPI.c **** /*
  28:Generated_Source\PSoC4/SDCard_SPI.c **** ;-----------------------------------------------------------------------------
  29:Generated_Source\PSoC4/SDCard_SPI.c **** ;  FUNCTION NAME: SDCard_InitHdwr
  30:Generated_Source\PSoC4/SDCard_SPI.c **** ;
  31:Generated_Source\PSoC4/SDCard_SPI.c **** ;  DESCRIPTION:
  32:Generated_Source\PSoC4/SDCard_SPI.c **** ;     Sets the start bit, SPI mode, and LSB/MSB first configuration of the SPIM
ARM GAS  C:\Users\BREYAN~1\AppData\Local\Temp\cczBBs9L.s 			page 2


  33:Generated_Source\PSoC4/SDCard_SPI.c **** ;     user module.
  34:Generated_Source\PSoC4/SDCard_SPI.c **** ;
  35:Generated_Source\PSoC4/SDCard_SPI.c **** ;     Transmission will begin transmitting when a byte is written into the TX buffer
  36:Generated_Source\PSoC4/SDCard_SPI.c **** ;     using the SDCard_SendTxData function.
  37:Generated_Source\PSoC4/SDCard_SPI.c **** ;
  38:Generated_Source\PSoC4/SDCard_SPI.c **** ;-----------------------------------------------------------------------------
  39:Generated_Source\PSoC4/SDCard_SPI.c **** ;
  40:Generated_Source\PSoC4/SDCard_SPI.c **** ;  ARGUMENTS:
  41:Generated_Source\PSoC4/SDCard_SPI.c **** ;     uint8 bConfiguration - Consists of SPI Mode and LSB/MSB first bit.
  42:Generated_Source\PSoC4/SDCard_SPI.c **** ;           Use defined masks - masks can be OR'd together.
  43:Generated_Source\PSoC4/SDCard_SPI.c **** ;     PASSED in Accumulator.
  44:Generated_Source\PSoC4/SDCard_SPI.c **** ;
  45:Generated_Source\PSoC4/SDCard_SPI.c **** ;  RETURNS:  none
  46:Generated_Source\PSoC4/SDCard_SPI.c **** ;
  47:Generated_Source\PSoC4/SDCard_SPI.c **** ;  SIDE EFFECTS: 
  48:Generated_Source\PSoC4/SDCard_SPI.c **** ;    The A and X registers may be modified by this or future implementations
  49:Generated_Source\PSoC4/SDCard_SPI.c **** ;    of this function.  The same is true for all RAM page pointer registers in
  50:Generated_Source\PSoC4/SDCard_SPI.c **** ;    the Large Memory Model.  When necessary, it is the calling function's
  51:Generated_Source\PSoC4/SDCard_SPI.c **** ;    responsibility to perserve their values across calls to fastcall16 
  52:Generated_Source\PSoC4/SDCard_SPI.c **** ;    functions.
  53:Generated_Source\PSoC4/SDCard_SPI.c **** ;
  54:Generated_Source\PSoC4/SDCard_SPI.c **** ;  THEORY of OPERATION or PROCEDURE:
  55:Generated_Source\PSoC4/SDCard_SPI.c **** ;     1) Set all Slave Select outputs high
  56:Generated_Source\PSoC4/SDCard_SPI.c **** ;     2) Set the specified SPI configuration bits in the Control register.
  57:Generated_Source\PSoC4/SDCard_SPI.c **** ;
  58:Generated_Source\PSoC4/SDCard_SPI.c **** */
  59:Generated_Source\PSoC4/SDCard_SPI.c **** void  SDCard_InitHdwr(uint8 bConfiguration)
  60:Generated_Source\PSoC4/SDCard_SPI.c **** {
  26              		.loc 1 60 0
  27              		.cfi_startproc
  28 0000 80B5     		push	{r7, lr}
  29              		.cfi_def_cfa_offset 8
  30              		.cfi_offset 7, -8
  31              		.cfi_offset 14, -4
  32 0002 82B0     		sub	sp, sp, #8
  33              		.cfi_def_cfa_offset 16
  34 0004 00AF     		add	r7, sp, #0
  35              		.cfi_def_cfa_register 7
  36 0006 021C     		mov	r2, r0
  37 0008 FB1D     		add	r3, r7, #7
  38 000a 1A70     		strb	r2, [r3]
  61:Generated_Source\PSoC4/SDCard_SPI.c **** 	SDCard_SD_CS_Write(0);
  39              		.loc 1 61 0
  40 000c 0020     		mov	r0, #0
  41 000e FFF7FEFF 		bl	SDCard_SD_CS_Write
  62:Generated_Source\PSoC4/SDCard_SPI.c **** 	SDCard_SD_Clock_SetDividerRegister(0, 1);
  42              		.loc 1 62 0
  43 0012 0020     		mov	r0, #0
  44 0014 0021     		mov	r1, #0
  45 0016 FFF7FEFF 		bl	SDCard_SD_Clock_SetFractionalDividerRegister
  63:Generated_Source\PSoC4/SDCard_SPI.c **** 	SDCard_SPIM_Start();
  46              		.loc 1 63 0
  47 001a FFF7FEFF 		bl	SDCard_SPIM_Start
  64:Generated_Source\PSoC4/SDCard_SPI.c **** 	SDCard_SPIM_SpiUartClearTxBuffer();
  48              		.loc 1 64 0
  49 001e FFF7FEFF 		bl	SDCard_SPIM_SpiUartClearTxBuffer
  65:Generated_Source\PSoC4/SDCard_SPI.c **** 	SDCard_SPIM_SpiUartClearRxBuffer();
ARM GAS  C:\Users\BREYAN~1\AppData\Local\Temp\cczBBs9L.s 			page 3


  50              		.loc 1 65 0
  51 0022 FFF7FEFF 		bl	SDCard_SPIM_SpiUartClearRxBuffer
  66:Generated_Source\PSoC4/SDCard_SPI.c **** }
  52              		.loc 1 66 0
  53 0026 BD46     		mov	sp, r7
  54 0028 02B0     		add	sp, sp, #8
  55              		@ sp needed
  56 002a 80BD     		pop	{r7, pc}
  57              		.cfi_endproc
  58              	.LFE34:
  59              		.size	SDCard_InitHdwr, .-SDCard_InitHdwr
  60              		.section	.text.SDCard_UnInitHdwr,"ax",%progbits
  61              		.align	2
  62              		.global	SDCard_UnInitHdwr
  63              		.code	16
  64              		.thumb_func
  65              		.type	SDCard_UnInitHdwr, %function
  66              	SDCard_UnInitHdwr:
  67              	.LFB35:
  67:Generated_Source\PSoC4/SDCard_SPI.c **** 
  68:Generated_Source\PSoC4/SDCard_SPI.c **** /*
  69:Generated_Source\PSoC4/SDCard_SPI.c **** ;-----------------------------------------------------------------------------
  70:Generated_Source\PSoC4/SDCard_SPI.c **** ;  FUNCTION NAME: SDCard_Stop
  71:Generated_Source\PSoC4/SDCard_SPI.c **** ;
  72:Generated_Source\PSoC4/SDCard_SPI.c **** ;  DESCRIPTION:
  73:Generated_Source\PSoC4/SDCard_SPI.c **** ;     Disables SPIM operation.
  74:Generated_Source\PSoC4/SDCard_SPI.c **** ;
  75:Generated_Source\PSoC4/SDCard_SPI.c **** ;-----------------------------------------------------------------------------
  76:Generated_Source\PSoC4/SDCard_SPI.c **** ;
  77:Generated_Source\PSoC4/SDCard_SPI.c **** ;  ARGUMENTS:  none
  78:Generated_Source\PSoC4/SDCard_SPI.c **** ;
  79:Generated_Source\PSoC4/SDCard_SPI.c **** ;  RETURNS:  none
  80:Generated_Source\PSoC4/SDCard_SPI.c **** ;
  81:Generated_Source\PSoC4/SDCard_SPI.c **** ;  SIDE EFFECTS: 
  82:Generated_Source\PSoC4/SDCard_SPI.c **** ;    The A and X registers may be modified by this or future implementations
  83:Generated_Source\PSoC4/SDCard_SPI.c **** ;    of this function.  The same is true for all RAM page pointer registers in
  84:Generated_Source\PSoC4/SDCard_SPI.c **** ;    the Large Memory Model.  When necessary, it is the calling function's
  85:Generated_Source\PSoC4/SDCard_SPI.c **** ;    responsibility to perserve their values across calls to fastcall16 
  86:Generated_Source\PSoC4/SDCard_SPI.c **** ;    functions.
  87:Generated_Source\PSoC4/SDCard_SPI.c **** ;
  88:Generated_Source\PSoC4/SDCard_SPI.c **** ;  THEORY of OPERATION or PROCEDURE:
  89:Generated_Source\PSoC4/SDCard_SPI.c **** ;     Clear the start bit in the Control register.
  90:Generated_Source\PSoC4/SDCard_SPI.c **** ;
  91:Generated_Source\PSoC4/SDCard_SPI.c **** */
  92:Generated_Source\PSoC4/SDCard_SPI.c **** void  SDCard_UnInitHdwr(void)
  93:Generated_Source\PSoC4/SDCard_SPI.c **** {
  68              		.loc 1 93 0
  69              		.cfi_startproc
  70 0000 80B5     		push	{r7, lr}
  71              		.cfi_def_cfa_offset 8
  72              		.cfi_offset 7, -8
  73              		.cfi_offset 14, -4
  74 0002 00AF     		add	r7, sp, #0
  75              		.cfi_def_cfa_register 7
  94:Generated_Source\PSoC4/SDCard_SPI.c **** 	SDCard_SD_CS_Write(1);
  76              		.loc 1 94 0
  77 0004 0120     		mov	r0, #1
ARM GAS  C:\Users\BREYAN~1\AppData\Local\Temp\cczBBs9L.s 			page 4


  78 0006 FFF7FEFF 		bl	SDCard_SD_CS_Write
  95:Generated_Source\PSoC4/SDCard_SPI.c **** 	SDCard_Select(0);
  79              		.loc 1 95 0
  80 000a 0020     		mov	r0, #0
  81 000c FFF7FEFF 		bl	SDCard_Select
  96:Generated_Source\PSoC4/SDCard_SPI.c **** 	SDCard_SPIM_Stop();
  82              		.loc 1 96 0
  83 0010 FFF7FEFF 		bl	SDCard_SPIM_Stop
  97:Generated_Source\PSoC4/SDCard_SPI.c **** }
  84              		.loc 1 97 0
  85 0014 BD46     		mov	sp, r7
  86              		@ sp needed
  87 0016 80BD     		pop	{r7, pc}
  88              		.cfi_endproc
  89              	.LFE35:
  90              		.size	SDCard_UnInitHdwr, .-SDCard_UnInitHdwr
  91              		.section	.text.SDCard_Select,"ax",%progbits
  92              		.align	2
  93              		.global	SDCard_Select
  94              		.code	16
  95              		.thumb_func
  96              		.type	SDCard_Select, %function
  97              	SDCard_Select:
  98              	.LFB36:
  98:Generated_Source\PSoC4/SDCard_SPI.c **** 
  99:Generated_Source\PSoC4/SDCard_SPI.c **** /*
 100:Generated_Source\PSoC4/SDCard_SPI.c **** ;-----------------------------------------------------------------------------
 101:Generated_Source\PSoC4/SDCard_SPI.c **** ;  FUNCTION NAME: void SDCard_Select(uint8 bEnable)
 102:Generated_Source\PSoC4/SDCard_SPI.c **** ;
 103:Generated_Source\PSoC4/SDCard_SPI.c **** ;  DESCRIPTION:
 104:Generated_Source\PSoC4/SDCard_SPI.c **** ;     Enable or disable card select signal.
 105:Generated_Source\PSoC4/SDCard_SPI.c **** ;
 106:Generated_Source\PSoC4/SDCard_SPI.c **** ;-----------------------------------------------------------------------------
 107:Generated_Source\PSoC4/SDCard_SPI.c **** ;
 108:Generated_Source\PSoC4/SDCard_SPI.c **** ;  ARGUMENTS:
 109:Generated_Source\PSoC4/SDCard_SPI.c **** ;     uint8 bEnable => 0 Disable Card
 110:Generated_Source\PSoC4/SDCard_SPI.c **** ;                  => 1 Enable Card
 111:Generated_Source\PSoC4/SDCard_SPI.c **** ;     PASSED in Accumulator.
 112:Generated_Source\PSoC4/SDCard_SPI.c **** ;
 113:Generated_Source\PSoC4/SDCard_SPI.c **** ;  RETURNS:  none
 114:Generated_Source\PSoC4/SDCard_SPI.c **** ;
 115:Generated_Source\PSoC4/SDCard_SPI.c **** ;  SIDE EFFECTS: 
 116:Generated_Source\PSoC4/SDCard_SPI.c **** ;    The A and X registers may be modified by this or future implementations
 117:Generated_Source\PSoC4/SDCard_SPI.c **** ;    of this function.  The same is true for all RAM page pointer registers in
 118:Generated_Source\PSoC4/SDCard_SPI.c **** ;    the Large Memory Model.  When necessary, it is the calling function's
 119:Generated_Source\PSoC4/SDCard_SPI.c **** ;    responsibility to perserve their values across calls to fastcall16 
 120:Generated_Source\PSoC4/SDCard_SPI.c **** ;    functions.
 121:Generated_Source\PSoC4/SDCard_SPI.c **** ;
 122:Generated_Source\PSoC4/SDCard_SPI.c **** ;  THEORY of OPERATION or PROCEDURE:
 123:Generated_Source\PSoC4/SDCard_SPI.c **** ;
 124:Generated_Source\PSoC4/SDCard_SPI.c **** ;-----------------------------------------------------------------------------
 125:Generated_Source\PSoC4/SDCard_SPI.c **** */
 126:Generated_Source\PSoC4/SDCard_SPI.c **** 
 127:Generated_Source\PSoC4/SDCard_SPI.c **** void  SDCard_Select(uint8 bEnable)
 128:Generated_Source\PSoC4/SDCard_SPI.c **** {
  99              		.loc 1 128 0
 100              		.cfi_startproc
ARM GAS  C:\Users\BREYAN~1\AppData\Local\Temp\cczBBs9L.s 			page 5


 101 0000 80B5     		push	{r7, lr}
 102              		.cfi_def_cfa_offset 8
 103              		.cfi_offset 7, -8
 104              		.cfi_offset 14, -4
 105 0002 82B0     		sub	sp, sp, #8
 106              		.cfi_def_cfa_offset 16
 107 0004 00AF     		add	r7, sp, #0
 108              		.cfi_def_cfa_register 7
 109 0006 021C     		mov	r2, r0
 110 0008 FB1D     		add	r3, r7, #7
 111 000a 1A70     		strb	r2, [r3]
 129:Generated_Source\PSoC4/SDCard_SPI.c **** 	if(bEnable)
 112              		.loc 1 129 0
 113 000c FB1D     		add	r3, r7, #7
 114 000e 1B78     		ldrb	r3, [r3]
 115 0010 002B     		cmp	r3, #0
 116 0012 06D0     		beq	.L4
 130:Generated_Source\PSoC4/SDCard_SPI.c **** 		{
 131:Generated_Source\PSoC4/SDCard_SPI.c **** 		SDCard_SD_CS_Write(0);
 117              		.loc 1 131 0
 118 0014 0020     		mov	r0, #0
 119 0016 FFF7FEFF 		bl	SDCard_SD_CS_Write
 132:Generated_Source\PSoC4/SDCard_SPI.c **** 		SDCard_SD_PWR_Write(1);
 120              		.loc 1 132 0
 121 001a 0120     		mov	r0, #1
 122 001c FFF7FEFF 		bl	SDCard_SD_PWR_Write
 123 0020 05E0     		b	.L3
 124              	.L4:
 133:Generated_Source\PSoC4/SDCard_SPI.c **** 		}
 134:Generated_Source\PSoC4/SDCard_SPI.c **** 	else
 135:Generated_Source\PSoC4/SDCard_SPI.c **** 		{
 136:Generated_Source\PSoC4/SDCard_SPI.c **** 		SDCard_SD_CS_Write(1);
 125              		.loc 1 136 0
 126 0022 0120     		mov	r0, #1
 127 0024 FFF7FEFF 		bl	SDCard_SD_CS_Write
 137:Generated_Source\PSoC4/SDCard_SPI.c **** 		SDCard_SD_PWR_Write(0);
 128              		.loc 1 137 0
 129 0028 0020     		mov	r0, #0
 130 002a FFF7FEFF 		bl	SDCard_SD_PWR_Write
 131              	.L3:
 138:Generated_Source\PSoC4/SDCard_SPI.c **** 		}
 139:Generated_Source\PSoC4/SDCard_SPI.c **** }
 132              		.loc 1 139 0
 133 002e BD46     		mov	sp, r7
 134 0030 02B0     		add	sp, sp, #8
 135              		@ sp needed
 136 0032 80BD     		pop	{r7, pc}
 137              		.cfi_endproc
 138              	.LFE36:
 139              		.size	SDCard_Select, .-SDCard_Select
 140              		.section	.text.SDCard_SendTxData,"ax",%progbits
 141              		.align	2
 142              		.global	SDCard_SendTxData
 143              		.code	16
 144              		.thumb_func
 145              		.type	SDCard_SendTxData, %function
 146              	SDCard_SendTxData:
ARM GAS  C:\Users\BREYAN~1\AppData\Local\Temp\cczBBs9L.s 			page 6


 147              	.LFB37:
 140:Generated_Source\PSoC4/SDCard_SPI.c **** 
 141:Generated_Source\PSoC4/SDCard_SPI.c **** /*
 142:Generated_Source\PSoC4/SDCard_SPI.c **** ;-----------------------------------------------------------------------------
 143:Generated_Source\PSoC4/SDCard_SPI.c **** ;  FUNCTION NAME: SDCard_SendTxData
 144:Generated_Source\PSoC4/SDCard_SPI.c **** ;
 145:Generated_Source\PSoC4/SDCard_SPI.c **** ;  DESCRIPTION:
 146:Generated_Source\PSoC4/SDCard_SPI.c **** ;     Initiates an SPI data transfer.
 147:Generated_Source\PSoC4/SDCard_SPI.c **** ;
 148:Generated_Source\PSoC4/SDCard_SPI.c **** ;-----------------------------------------------------------------------------
 149:Generated_Source\PSoC4/SDCard_SPI.c **** ;
 150:Generated_Source\PSoC4/SDCard_SPI.c **** ;  ARGUMENTS:
 151:Generated_Source\PSoC4/SDCard_SPI.c **** ;     uint8  bTxData - data to transmit.
 152:Generated_Source\PSoC4/SDCard_SPI.c **** ;        Passed in Accumulator.
 153:Generated_Source\PSoC4/SDCard_SPI.c **** ;
 154:Generated_Source\PSoC4/SDCard_SPI.c **** ;  RETURNS:  none
 155:Generated_Source\PSoC4/SDCard_SPI.c **** ;
 156:Generated_Source\PSoC4/SDCard_SPI.c **** ;  SIDE EFFECTS: 
 157:Generated_Source\PSoC4/SDCard_SPI.c **** ;    The A and X registers may be modified by this or future implementations
 158:Generated_Source\PSoC4/SDCard_SPI.c **** ;    of this function.  The same is true for all RAM page pointer registers in
 159:Generated_Source\PSoC4/SDCard_SPI.c **** ;    the Large Memory Model.  When necessary, it is the calling function's
 160:Generated_Source\PSoC4/SDCard_SPI.c **** ;    responsibility to perserve their values across calls to fastcall16 
 161:Generated_Source\PSoC4/SDCard_SPI.c **** ;    functions.
 162:Generated_Source\PSoC4/SDCard_SPI.c **** ;
 163:Generated_Source\PSoC4/SDCard_SPI.c **** ;  THEORY of OPERATION or PROCEDURE:
 164:Generated_Source\PSoC4/SDCard_SPI.c **** ;     Writes data to the TX buffer register.
 165:Generated_Source\PSoC4/SDCard_SPI.c **** ;
 166:Generated_Source\PSoC4/SDCard_SPI.c **** */
 167:Generated_Source\PSoC4/SDCard_SPI.c **** void  SDCard_SendTxData(uint8 bTxData)
 168:Generated_Source\PSoC4/SDCard_SPI.c **** {
 148              		.loc 1 168 0
 149              		.cfi_startproc
 150 0000 80B5     		push	{r7, lr}
 151              		.cfi_def_cfa_offset 8
 152              		.cfi_offset 7, -8
 153              		.cfi_offset 14, -4
 154 0002 82B0     		sub	sp, sp, #8
 155              		.cfi_def_cfa_offset 16
 156 0004 00AF     		add	r7, sp, #0
 157              		.cfi_def_cfa_register 7
 158 0006 021C     		mov	r2, r0
 159 0008 FB1D     		add	r3, r7, #7
 160 000a 1A70     		strb	r2, [r3]
 169:Generated_Source\PSoC4/SDCard_SPI.c **** 	SDCard_SPIM_SpiUartWriteTxData((uint32) bTxData);
 161              		.loc 1 169 0
 162 000c FB1D     		add	r3, r7, #7
 163 000e 1B78     		ldrb	r3, [r3]
 164 0010 181C     		mov	r0, r3
 165 0012 FFF7FEFF 		bl	SDCard_SPIM_SpiUartWriteTxData
 170:Generated_Source\PSoC4/SDCard_SPI.c **** }
 166              		.loc 1 170 0
 167 0016 BD46     		mov	sp, r7
 168 0018 02B0     		add	sp, sp, #8
 169              		@ sp needed
 170 001a 80BD     		pop	{r7, pc}
 171              		.cfi_endproc
 172              	.LFE37:
ARM GAS  C:\Users\BREYAN~1\AppData\Local\Temp\cczBBs9L.s 			page 7


 173              		.size	SDCard_SendTxData, .-SDCard_SendTxData
 174              		.section	.text.SDCard_WriteBuff256,"ax",%progbits
 175              		.align	2
 176              		.global	SDCard_WriteBuff256
 177              		.code	16
 178              		.thumb_func
 179              		.type	SDCard_WriteBuff256, %function
 180              	SDCard_WriteBuff256:
 181              	.LFB38:
 171:Generated_Source\PSoC4/SDCard_SPI.c **** 
 172:Generated_Source\PSoC4/SDCard_SPI.c **** /*
 173:Generated_Source\PSoC4/SDCard_SPI.c **** ;-----------------------------------------------------------------------------
 174:Generated_Source\PSoC4/SDCard_SPI.c **** ;  FUNCTION NAME: SDCard_WriteBuff256(char * sRamBuff)
 175:Generated_Source\PSoC4/SDCard_SPI.c **** ;
 176:Generated_Source\PSoC4/SDCard_SPI.c **** ;  DESCRIPTION:
 177:Generated_Source\PSoC4/SDCard_SPI.c **** ;     Writes a 256 byte buffer to the SPI port
 178:Generated_Source\PSoC4/SDCard_SPI.c **** ;
 179:Generated_Source\PSoC4/SDCard_SPI.c **** ;-----------------------------------------------------------------------------
 180:Generated_Source\PSoC4/SDCard_SPI.c **** ;
 181:Generated_Source\PSoC4/SDCard_SPI.c **** ;  ARGUMENTS:
 182:Generated_Source\PSoC4/SDCard_SPI.c **** ;     A:X  Pointer to String
 183:Generated_Source\PSoC4/SDCard_SPI.c **** ;          A contains MSB of string address
 184:Generated_Source\PSoC4/SDCard_SPI.c **** ;          X contains LSB of string address
 185:Generated_Source\PSoC4/SDCard_SPI.c **** ;
 186:Generated_Source\PSoC4/SDCard_SPI.c **** ;
 187:Generated_Source\PSoC4/SDCard_SPI.c **** ;  RETURNS:  none
 188:Generated_Source\PSoC4/SDCard_SPI.c **** ;
 189:Generated_Source\PSoC4/SDCard_SPI.c **** ;  SIDE EFFECTS: 
 190:Generated_Source\PSoC4/SDCard_SPI.c **** ;    The A and X registers may be modified by this or future implementations
 191:Generated_Source\PSoC4/SDCard_SPI.c **** ;    of this function.  The same is true for all RAM page pointer registers in
 192:Generated_Source\PSoC4/SDCard_SPI.c **** ;    the Large Memory Model.  When necessary, it is the calling function's
 193:Generated_Source\PSoC4/SDCard_SPI.c **** ;    responsibility to perserve their values across calls to fastcall16 
 194:Generated_Source\PSoC4/SDCard_SPI.c **** ;    functions.
 195:Generated_Source\PSoC4/SDCard_SPI.c **** ;
 196:Generated_Source\PSoC4/SDCard_SPI.c **** ;
 197:Generated_Source\PSoC4/SDCard_SPI.c **** ;  THEORY of OPERATION or PROCEDURE:
 198:Generated_Source\PSoC4/SDCard_SPI.c **** ;     Writes data to the TX buffer register.
 199:Generated_Source\PSoC4/SDCard_SPI.c **** ;
 200:Generated_Source\PSoC4/SDCard_SPI.c **** */
 201:Generated_Source\PSoC4/SDCard_SPI.c **** void  SDCard_WriteBuff256(char * sRamBuff)
 202:Generated_Source\PSoC4/SDCard_SPI.c **** {
 182              		.loc 1 202 0
 183              		.cfi_startproc
 184 0000 80B5     		push	{r7, lr}
 185              		.cfi_def_cfa_offset 8
 186              		.cfi_offset 7, -8
 187              		.cfi_offset 14, -4
 188 0002 84B0     		sub	sp, sp, #16
 189              		.cfi_def_cfa_offset 24
 190 0004 00AF     		add	r7, sp, #0
 191              		.cfi_def_cfa_register 7
 192 0006 7860     		str	r0, [r7, #4]
 203:Generated_Source\PSoC4/SDCard_SPI.c **** 	uint32 i, temp;
 204:Generated_Source\PSoC4/SDCard_SPI.c **** 	for(i=0; i<256; i++)
 193              		.loc 1 204 0
 194 0008 0023     		mov	r3, #0
 195 000a FB60     		str	r3, [r7, #12]
ARM GAS  C:\Users\BREYAN~1\AppData\Local\Temp\cczBBs9L.s 			page 8


 196 000c 12E0     		b	.L8
 197              	.L10:
 205:Generated_Source\PSoC4/SDCard_SPI.c **** 	{
 206:Generated_Source\PSoC4/SDCard_SPI.c **** 		SDCard_SPIM_SpiUartWriteTxData((uint32)sRamBuff[i]);
 198              		.loc 1 206 0
 199 000e 7A68     		ldr	r2, [r7, #4]
 200 0010 FB68     		ldr	r3, [r7, #12]
 201 0012 D318     		add	r3, r2, r3
 202 0014 1B78     		ldrb	r3, [r3]
 203 0016 181C     		mov	r0, r3
 204 0018 FFF7FEFF 		bl	SDCard_SPIM_SpiUartWriteTxData
 207:Generated_Source\PSoC4/SDCard_SPI.c **** 		while(! (SDCard_SPIM_SpiUartGetRxBufferSize() > 0));
 205              		.loc 1 207 0
 206 001c C046     		mov	r8, r8
 207              	.L9:
 208              		.loc 1 207 0 is_stmt 0 discriminator 1
 209 001e FFF7FEFF 		bl	SDCard_SPIM_SpiUartGetRxBufferSize
 210 0022 031E     		sub	r3, r0, #0
 211 0024 FBD0     		beq	.L9
 208:Generated_Source\PSoC4/SDCard_SPI.c **** 		temp = SDCard_SPIM_SpiUartReadRxData();
 212              		.loc 1 208 0 is_stmt 1 discriminator 2
 213 0026 FFF7FEFF 		bl	SDCard_SPIM_SpiUartReadRxData
 214 002a 031C     		mov	r3, r0
 215 002c BB60     		str	r3, [r7, #8]
 204:Generated_Source\PSoC4/SDCard_SPI.c **** 	{
 216              		.loc 1 204 0 discriminator 2
 217 002e FB68     		ldr	r3, [r7, #12]
 218 0030 0133     		add	r3, r3, #1
 219 0032 FB60     		str	r3, [r7, #12]
 220              	.L8:
 204:Generated_Source\PSoC4/SDCard_SPI.c **** 	{
 221              		.loc 1 204 0 is_stmt 0 discriminator 1
 222 0034 FB68     		ldr	r3, [r7, #12]
 223 0036 FF2B     		cmp	r3, #255
 224 0038 E9D9     		bls	.L10
 209:Generated_Source\PSoC4/SDCard_SPI.c **** 	}
 210:Generated_Source\PSoC4/SDCard_SPI.c **** }
 225              		.loc 1 210 0 is_stmt 1
 226 003a BD46     		mov	sp, r7
 227 003c 04B0     		add	sp, sp, #16
 228              		@ sp needed
 229 003e 80BD     		pop	{r7, pc}
 230              		.cfi_endproc
 231              	.LFE38:
 232              		.size	SDCard_WriteBuff256, .-SDCard_WriteBuff256
 233              		.section	.text.SDCard_WriteBuff,"ax",%progbits
 234              		.align	2
 235              		.global	SDCard_WriteBuff
 236              		.code	16
 237              		.thumb_func
 238              		.type	SDCard_WriteBuff, %function
 239              	SDCard_WriteBuff:
 240              	.LFB39:
 211:Generated_Source\PSoC4/SDCard_SPI.c **** 
 212:Generated_Source\PSoC4/SDCard_SPI.c **** /*
 213:Generated_Source\PSoC4/SDCard_SPI.c **** ;-----------------------------------------------------------------------------
 214:Generated_Source\PSoC4/SDCard_SPI.c **** ;  FUNCTION NAME: SDCard_WriteBuff(uint8 * pBuff, uint8 bCnt)
ARM GAS  C:\Users\BREYAN~1\AppData\Local\Temp\cczBBs9L.s 			page 9


 215:Generated_Source\PSoC4/SDCard_SPI.c **** ;
 216:Generated_Source\PSoC4/SDCard_SPI.c **** ;  DESCRIPTION:
 217:Generated_Source\PSoC4/SDCard_SPI.c **** ;     Writes n bytes to the SPI port
 218:Generated_Source\PSoC4/SDCard_SPI.c **** ;
 219:Generated_Source\PSoC4/SDCard_SPI.c **** ;-----------------------------------------------------------------------------
 220:Generated_Source\PSoC4/SDCard_SPI.c **** ;
 221:Generated_Source\PSoC4/SDCard_SPI.c **** ;  ARGUMENTS:
 222:Generated_Source\PSoC4/SDCard_SPI.c **** ;  FASTCALL16 ARGUMENTS:
 223:Generated_Source\PSoC4/SDCard_SPI.c **** ;
 224:Generated_Source\PSoC4/SDCard_SPI.c **** ;   [SP-3] => pBuff LSB Address.
 225:Generated_Source\PSoC4/SDCard_SPI.c **** ;   [SP-4] => pBuff MSB Address.
 226:Generated_Source\PSoC4/SDCard_SPI.c **** ;   [SP-5] => Buffer length to write.
 227:Generated_Source\PSoC4/SDCard_SPI.c **** ;
 228:Generated_Source\PSoC4/SDCard_SPI.c **** ;  RETURNS:  none
 229:Generated_Source\PSoC4/SDCard_SPI.c **** ;
 230:Generated_Source\PSoC4/SDCard_SPI.c **** ;  SIDE EFFECTS: 
 231:Generated_Source\PSoC4/SDCard_SPI.c **** ;    The A and X registers may be modified by this or future implementations
 232:Generated_Source\PSoC4/SDCard_SPI.c **** ;    of this function.  The same is true for all RAM page pointer registers in
 233:Generated_Source\PSoC4/SDCard_SPI.c **** ;    the Large Memory Model.  When necessary, it is the calling function's
 234:Generated_Source\PSoC4/SDCard_SPI.c **** ;    responsibility to perserve their values across calls to fastcall16 
 235:Generated_Source\PSoC4/SDCard_SPI.c **** ;    functions.
 236:Generated_Source\PSoC4/SDCard_SPI.c **** ;
 237:Generated_Source\PSoC4/SDCard_SPI.c **** ;
 238:Generated_Source\PSoC4/SDCard_SPI.c **** ;  THEORY of OPERATION or PROCEDURE:
 239:Generated_Source\PSoC4/SDCard_SPI.c **** ;     Writes n data byte to the TX buffer register.
 240:Generated_Source\PSoC4/SDCard_SPI.c **** ;
 241:Generated_Source\PSoC4/SDCard_SPI.c **** */
 242:Generated_Source\PSoC4/SDCard_SPI.c **** void  SDCard_WriteBuff(char * sRamBuff, uint8 bCnt)
 243:Generated_Source\PSoC4/SDCard_SPI.c **** {
 241              		.loc 1 243 0
 242              		.cfi_startproc
 243 0000 80B5     		push	{r7, lr}
 244              		.cfi_def_cfa_offset 8
 245              		.cfi_offset 7, -8
 246              		.cfi_offset 14, -4
 247 0002 84B0     		sub	sp, sp, #16
 248              		.cfi_def_cfa_offset 24
 249 0004 00AF     		add	r7, sp, #0
 250              		.cfi_def_cfa_register 7
 251 0006 7860     		str	r0, [r7, #4]
 252 0008 0A1C     		mov	r2, r1
 253 000a FB1C     		add	r3, r7, #3
 254 000c 1A70     		strb	r2, [r3]
 244:Generated_Source\PSoC4/SDCard_SPI.c **** 	uint32 i, temp;
 245:Generated_Source\PSoC4/SDCard_SPI.c **** 	for(i=0; i<bCnt; i++)
 255              		.loc 1 245 0
 256 000e 0023     		mov	r3, #0
 257 0010 FB60     		str	r3, [r7, #12]
 258 0012 12E0     		b	.L12
 259              	.L14:
 246:Generated_Source\PSoC4/SDCard_SPI.c **** 	{
 247:Generated_Source\PSoC4/SDCard_SPI.c **** 		SDCard_SPIM_SpiUartWriteTxData((uint32)sRamBuff[i]);
 260              		.loc 1 247 0
 261 0014 7A68     		ldr	r2, [r7, #4]
 262 0016 FB68     		ldr	r3, [r7, #12]
 263 0018 D318     		add	r3, r2, r3
 264 001a 1B78     		ldrb	r3, [r3]
ARM GAS  C:\Users\BREYAN~1\AppData\Local\Temp\cczBBs9L.s 			page 10


 265 001c 181C     		mov	r0, r3
 266 001e FFF7FEFF 		bl	SDCard_SPIM_SpiUartWriteTxData
 248:Generated_Source\PSoC4/SDCard_SPI.c **** 		while(! (SDCard_SPIM_SpiUartGetRxBufferSize() > 0));
 267              		.loc 1 248 0
 268 0022 C046     		mov	r8, r8
 269              	.L13:
 270              		.loc 1 248 0 is_stmt 0 discriminator 1
 271 0024 FFF7FEFF 		bl	SDCard_SPIM_SpiUartGetRxBufferSize
 272 0028 031E     		sub	r3, r0, #0
 273 002a FBD0     		beq	.L13
 249:Generated_Source\PSoC4/SDCard_SPI.c **** 		temp = SDCard_SPIM_SpiUartReadRxData();
 274              		.loc 1 249 0 is_stmt 1 discriminator 2
 275 002c FFF7FEFF 		bl	SDCard_SPIM_SpiUartReadRxData
 276 0030 031C     		mov	r3, r0
 277 0032 BB60     		str	r3, [r7, #8]
 245:Generated_Source\PSoC4/SDCard_SPI.c **** 	{
 278              		.loc 1 245 0 discriminator 2
 279 0034 FB68     		ldr	r3, [r7, #12]
 280 0036 0133     		add	r3, r3, #1
 281 0038 FB60     		str	r3, [r7, #12]
 282              	.L12:
 245:Generated_Source\PSoC4/SDCard_SPI.c **** 	{
 283              		.loc 1 245 0 is_stmt 0 discriminator 1
 284 003a FB1C     		add	r3, r7, #3
 285 003c 1A78     		ldrb	r2, [r3]
 286 003e FB68     		ldr	r3, [r7, #12]
 287 0040 9A42     		cmp	r2, r3
 288 0042 E7D8     		bhi	.L14
 250:Generated_Source\PSoC4/SDCard_SPI.c **** 	}
 251:Generated_Source\PSoC4/SDCard_SPI.c **** }
 289              		.loc 1 251 0 is_stmt 1
 290 0044 BD46     		mov	sp, r7
 291 0046 04B0     		add	sp, sp, #16
 292              		@ sp needed
 293 0048 80BD     		pop	{r7, pc}
 294              		.cfi_endproc
 295              	.LFE39:
 296              		.size	SDCard_WriteBuff, .-SDCard_WriteBuff
 297 004a C046     		.section	.text.SDCard_ReadBuff,"ax",%progbits
 298              		.align	2
 299              		.global	SDCard_ReadBuff
 300              		.code	16
 301              		.thumb_func
 302              		.type	SDCard_ReadBuff, %function
 303              	SDCard_ReadBuff:
 304              	.LFB40:
 252:Generated_Source\PSoC4/SDCard_SPI.c **** 
 253:Generated_Source\PSoC4/SDCard_SPI.c **** /*
 254:Generated_Source\PSoC4/SDCard_SPI.c **** ;-----------------------------------------------------------------------------
 255:Generated_Source\PSoC4/SDCard_SPI.c **** ;  FUNCTION NAME: SDCard_ReadBuff(uint8 * pBuff, uint8 bCnt)
 256:Generated_Source\PSoC4/SDCard_SPI.c **** ;
 257:Generated_Source\PSoC4/SDCard_SPI.c **** ;  DESCRIPTION:
 258:Generated_Source\PSoC4/SDCard_SPI.c **** ;     Reads n bytes from the SPI port
 259:Generated_Source\PSoC4/SDCard_SPI.c **** ;
 260:Generated_Source\PSoC4/SDCard_SPI.c **** ;-----------------------------------------------------------------------------
 261:Generated_Source\PSoC4/SDCard_SPI.c **** ;
 262:Generated_Source\PSoC4/SDCard_SPI.c **** ;  ARGUMENTS:
ARM GAS  C:\Users\BREYAN~1\AppData\Local\Temp\cczBBs9L.s 			page 11


 263:Generated_Source\PSoC4/SDCard_SPI.c **** ;  FASTCALL16 ARGUMENTS:
 264:Generated_Source\PSoC4/SDCard_SPI.c **** ;
 265:Generated_Source\PSoC4/SDCard_SPI.c **** ;   [SP-3] => pBuff LSB Address.
 266:Generated_Source\PSoC4/SDCard_SPI.c **** ;   [SP-4] => pBuff MSB Address.
 267:Generated_Source\PSoC4/SDCard_SPI.c **** ;   [SP-5] => Buffer length to read (bCnt).
 268:Generated_Source\PSoC4/SDCard_SPI.c **** ;
 269:Generated_Source\PSoC4/SDCard_SPI.c **** ;
 270:Generated_Source\PSoC4/SDCard_SPI.c **** ;  RETURNS:  none
 271:Generated_Source\PSoC4/SDCard_SPI.c **** ;
 272:Generated_Source\PSoC4/SDCard_SPI.c **** ;  SIDE EFFECTS: 
 273:Generated_Source\PSoC4/SDCard_SPI.c **** ;    The A and X registers may be modified by this or future implementations
 274:Generated_Source\PSoC4/SDCard_SPI.c **** ;    of this function.  The same is true for all RAM page pointer registers in
 275:Generated_Source\PSoC4/SDCard_SPI.c **** ;    the Large Memory Model.  When necessary, it is the calling function's
 276:Generated_Source\PSoC4/SDCard_SPI.c **** ;    responsibility to perserve their values across calls to fastcall16 
 277:Generated_Source\PSoC4/SDCard_SPI.c **** ;    functions.
 278:Generated_Source\PSoC4/SDCard_SPI.c **** ;
 279:Generated_Source\PSoC4/SDCard_SPI.c **** ;
 280:Generated_Source\PSoC4/SDCard_SPI.c **** ;  THEORY of OPERATION or PROCEDURE:
 281:Generated_Source\PSoC4/SDCard_SPI.c **** ;     Writes data to the TX buffer register.
 282:Generated_Source\PSoC4/SDCard_SPI.c **** ;
 283:Generated_Source\PSoC4/SDCard_SPI.c **** */
 284:Generated_Source\PSoC4/SDCard_SPI.c **** void  SDCard_ReadBuff(char * sRamBuff, uint8 bCnt)
 285:Generated_Source\PSoC4/SDCard_SPI.c **** {
 305              		.loc 1 285 0
 306              		.cfi_startproc
 307 0000 90B5     		push	{r4, r7, lr}
 308              		.cfi_def_cfa_offset 12
 309              		.cfi_offset 4, -12
 310              		.cfi_offset 7, -8
 311              		.cfi_offset 14, -4
 312 0002 85B0     		sub	sp, sp, #20
 313              		.cfi_def_cfa_offset 32
 314 0004 00AF     		add	r7, sp, #0
 315              		.cfi_def_cfa_register 7
 316 0006 7860     		str	r0, [r7, #4]
 317 0008 0A1C     		mov	r2, r1
 318 000a FB1C     		add	r3, r7, #3
 319 000c 1A70     		strb	r2, [r3]
 286:Generated_Source\PSoC4/SDCard_SPI.c **** 	uint32 i;
 287:Generated_Source\PSoC4/SDCard_SPI.c **** 	for(i=0; i<bCnt; i++)
 320              		.loc 1 287 0
 321 000e 0023     		mov	r3, #0
 322 0010 FB60     		str	r3, [r7, #12]
 323 0012 12E0     		b	.L16
 324              	.L18:
 288:Generated_Source\PSoC4/SDCard_SPI.c **** 	{
 289:Generated_Source\PSoC4/SDCard_SPI.c **** 		SDCard_SPIM_SpiUartWriteTxData(0xFF);
 325              		.loc 1 289 0
 326 0014 FF20     		mov	r0, #255
 327 0016 FFF7FEFF 		bl	SDCard_SPIM_SpiUartWriteTxData
 290:Generated_Source\PSoC4/SDCard_SPI.c **** 		while(! (SDCard_SPIM_SpiUartGetRxBufferSize() > 0));
 328              		.loc 1 290 0
 329 001a C046     		mov	r8, r8
 330              	.L17:
 331              		.loc 1 290 0 is_stmt 0 discriminator 1
 332 001c FFF7FEFF 		bl	SDCard_SPIM_SpiUartGetRxBufferSize
 333 0020 031E     		sub	r3, r0, #0
ARM GAS  C:\Users\BREYAN~1\AppData\Local\Temp\cczBBs9L.s 			page 12


 334 0022 FBD0     		beq	.L17
 291:Generated_Source\PSoC4/SDCard_SPI.c **** 		sRamBuff[i] = (char) SDCard_SPIM_SpiUartReadRxData();
 335              		.loc 1 291 0 is_stmt 1 discriminator 2
 336 0024 7A68     		ldr	r2, [r7, #4]
 337 0026 FB68     		ldr	r3, [r7, #12]
 338 0028 D418     		add	r4, r2, r3
 339 002a FFF7FEFF 		bl	SDCard_SPIM_SpiUartReadRxData
 340 002e 031C     		mov	r3, r0
 341 0030 DBB2     		uxtb	r3, r3
 342 0032 2370     		strb	r3, [r4]
 287:Generated_Source\PSoC4/SDCard_SPI.c **** 	{
 343              		.loc 1 287 0 discriminator 2
 344 0034 FB68     		ldr	r3, [r7, #12]
 345 0036 0133     		add	r3, r3, #1
 346 0038 FB60     		str	r3, [r7, #12]
 347              	.L16:
 287:Generated_Source\PSoC4/SDCard_SPI.c **** 	{
 348              		.loc 1 287 0 is_stmt 0 discriminator 1
 349 003a FB1C     		add	r3, r7, #3
 350 003c 1A78     		ldrb	r2, [r3]
 351 003e FB68     		ldr	r3, [r7, #12]
 352 0040 9A42     		cmp	r2, r3
 353 0042 E7D8     		bhi	.L18
 292:Generated_Source\PSoC4/SDCard_SPI.c **** 	}
 293:Generated_Source\PSoC4/SDCard_SPI.c **** }
 354              		.loc 1 293 0 is_stmt 1
 355 0044 BD46     		mov	sp, r7
 356 0046 05B0     		add	sp, sp, #20
 357              		@ sp needed
 358 0048 90BD     		pop	{r4, r7, pc}
 359              		.cfi_endproc
 360              	.LFE40:
 361              		.size	SDCard_ReadBuff, .-SDCard_ReadBuff
 362 004a C046     		.section	.text.SDCard_ReadBuff256,"ax",%progbits
 363              		.align	2
 364              		.global	SDCard_ReadBuff256
 365              		.code	16
 366              		.thumb_func
 367              		.type	SDCard_ReadBuff256, %function
 368              	SDCard_ReadBuff256:
 369              	.LFB41:
 294:Generated_Source\PSoC4/SDCard_SPI.c **** 
 295:Generated_Source\PSoC4/SDCard_SPI.c **** /*
 296:Generated_Source\PSoC4/SDCard_SPI.c **** ;-----------------------------------------------------------------------------
 297:Generated_Source\PSoC4/SDCard_SPI.c **** ;  FUNCTION NAME: SDCard_ReadBuff256(char * sRamBuff)
 298:Generated_Source\PSoC4/SDCard_SPI.c **** ;
 299:Generated_Source\PSoC4/SDCard_SPI.c **** ;  DESCRIPTION:
 300:Generated_Source\PSoC4/SDCard_SPI.c **** ;     Reads 256 bytes into a buffer from the SPI port
 301:Generated_Source\PSoC4/SDCard_SPI.c **** ;
 302:Generated_Source\PSoC4/SDCard_SPI.c **** ;-----------------------------------------------------------------------------
 303:Generated_Source\PSoC4/SDCard_SPI.c **** ;
 304:Generated_Source\PSoC4/SDCard_SPI.c **** ;  ARGUMENTS:
 305:Generated_Source\PSoC4/SDCard_SPI.c **** ;     A:X  Pointer to String
 306:Generated_Source\PSoC4/SDCard_SPI.c **** ;          A contains MSB of string address
 307:Generated_Source\PSoC4/SDCard_SPI.c **** ;          X contains LSB of string address
 308:Generated_Source\PSoC4/SDCard_SPI.c **** ;
 309:Generated_Source\PSoC4/SDCard_SPI.c **** ;
ARM GAS  C:\Users\BREYAN~1\AppData\Local\Temp\cczBBs9L.s 			page 13


 310:Generated_Source\PSoC4/SDCard_SPI.c **** ;  RETURNS:  none
 311:Generated_Source\PSoC4/SDCard_SPI.c **** ;
 312:Generated_Source\PSoC4/SDCard_SPI.c **** ;  SIDE EFFECTS: 
 313:Generated_Source\PSoC4/SDCard_SPI.c **** ;    The A and X registers may be modified by this or future implementations
 314:Generated_Source\PSoC4/SDCard_SPI.c **** ;    of this function.  The same is true for all RAM page pointer registers in
 315:Generated_Source\PSoC4/SDCard_SPI.c **** ;    the Large Memory Model.  When necessary, it is the calling function's
 316:Generated_Source\PSoC4/SDCard_SPI.c **** ;    responsibility to perserve their values across calls to fastcall16 
 317:Generated_Source\PSoC4/SDCard_SPI.c **** ;    functions.
 318:Generated_Source\PSoC4/SDCard_SPI.c **** ;
 319:Generated_Source\PSoC4/SDCard_SPI.c **** ;
 320:Generated_Source\PSoC4/SDCard_SPI.c **** ;  THEORY of OPERATION or PROCEDURE:
 321:Generated_Source\PSoC4/SDCard_SPI.c **** ;     Reads data from the TX buffer register.
 322:Generated_Source\PSoC4/SDCard_SPI.c **** ;
 323:Generated_Source\PSoC4/SDCard_SPI.c **** */
 324:Generated_Source\PSoC4/SDCard_SPI.c **** void  SDCard_ReadBuff256(char * sRamBuff)
 325:Generated_Source\PSoC4/SDCard_SPI.c **** {
 370              		.loc 1 325 0
 371              		.cfi_startproc
 372 0000 90B5     		push	{r4, r7, lr}
 373              		.cfi_def_cfa_offset 12
 374              		.cfi_offset 4, -12
 375              		.cfi_offset 7, -8
 376              		.cfi_offset 14, -4
 377 0002 85B0     		sub	sp, sp, #20
 378              		.cfi_def_cfa_offset 32
 379 0004 00AF     		add	r7, sp, #0
 380              		.cfi_def_cfa_register 7
 381 0006 7860     		str	r0, [r7, #4]
 326:Generated_Source\PSoC4/SDCard_SPI.c **** 	uint32 i;
 327:Generated_Source\PSoC4/SDCard_SPI.c **** 	for(i=0; i<256; i++)
 382              		.loc 1 327 0
 383 0008 0023     		mov	r3, #0
 384 000a FB60     		str	r3, [r7, #12]
 385 000c 12E0     		b	.L20
 386              	.L22:
 328:Generated_Source\PSoC4/SDCard_SPI.c **** 	{
 329:Generated_Source\PSoC4/SDCard_SPI.c **** 		SDCard_SPIM_SpiUartWriteTxData(0xFF);
 387              		.loc 1 329 0
 388 000e FF20     		mov	r0, #255
 389 0010 FFF7FEFF 		bl	SDCard_SPIM_SpiUartWriteTxData
 330:Generated_Source\PSoC4/SDCard_SPI.c **** 		while(! (SDCard_SPIM_SpiUartGetRxBufferSize() > 0));
 390              		.loc 1 330 0
 391 0014 C046     		mov	r8, r8
 392              	.L21:
 393              		.loc 1 330 0 is_stmt 0 discriminator 1
 394 0016 FFF7FEFF 		bl	SDCard_SPIM_SpiUartGetRxBufferSize
 395 001a 031E     		sub	r3, r0, #0
 396 001c FBD0     		beq	.L21
 331:Generated_Source\PSoC4/SDCard_SPI.c **** 		sRamBuff[i] = (char) SDCard_SPIM_SpiUartReadRxData();
 397              		.loc 1 331 0 is_stmt 1 discriminator 2
 398 001e 7A68     		ldr	r2, [r7, #4]
 399 0020 FB68     		ldr	r3, [r7, #12]
 400 0022 D418     		add	r4, r2, r3
 401 0024 FFF7FEFF 		bl	SDCard_SPIM_SpiUartReadRxData
 402 0028 031C     		mov	r3, r0
 403 002a DBB2     		uxtb	r3, r3
 404 002c 2370     		strb	r3, [r4]
ARM GAS  C:\Users\BREYAN~1\AppData\Local\Temp\cczBBs9L.s 			page 14


 327:Generated_Source\PSoC4/SDCard_SPI.c **** 	{
 405              		.loc 1 327 0 discriminator 2
 406 002e FB68     		ldr	r3, [r7, #12]
 407 0030 0133     		add	r3, r3, #1
 408 0032 FB60     		str	r3, [r7, #12]
 409              	.L20:
 327:Generated_Source\PSoC4/SDCard_SPI.c **** 	{
 410              		.loc 1 327 0 is_stmt 0 discriminator 1
 411 0034 FB68     		ldr	r3, [r7, #12]
 412 0036 FF2B     		cmp	r3, #255
 413 0038 E9D9     		bls	.L22
 332:Generated_Source\PSoC4/SDCard_SPI.c **** 	}
 333:Generated_Source\PSoC4/SDCard_SPI.c **** }
 414              		.loc 1 333 0 is_stmt 1
 415 003a BD46     		mov	sp, r7
 416 003c 05B0     		add	sp, sp, #20
 417              		@ sp needed
 418 003e 90BD     		pop	{r4, r7, pc}
 419              		.cfi_endproc
 420              	.LFE41:
 421              		.size	SDCard_ReadBuff256, .-SDCard_ReadBuff256
 422              		.section	.text.SDCard_bReadRxData,"ax",%progbits
 423              		.align	2
 424              		.global	SDCard_bReadRxData
 425              		.code	16
 426              		.thumb_func
 427              		.type	SDCard_bReadRxData, %function
 428              	SDCard_bReadRxData:
 429              	.LFB42:
 334:Generated_Source\PSoC4/SDCard_SPI.c **** 
 335:Generated_Source\PSoC4/SDCard_SPI.c **** /*
 336:Generated_Source\PSoC4/SDCard_SPI.c **** ;-----------------------------------------------------------------------------
 337:Generated_Source\PSoC4/SDCard_SPI.c **** ;  FUNCTION NAME: SDCard_bReadRxData
 338:Generated_Source\PSoC4/SDCard_SPI.c **** ;
 339:Generated_Source\PSoC4/SDCard_SPI.c **** ;  DESCRIPTION:
 340:Generated_Source\PSoC4/SDCard_SPI.c **** ;     Reads the RX buffer register.  Should check the status regiser to make
 341:Generated_Source\PSoC4/SDCard_SPI.c **** ;     sure data is valid.
 342:Generated_Source\PSoC4/SDCard_SPI.c **** ;
 343:Generated_Source\PSoC4/SDCard_SPI.c **** ;-----------------------------------------------------------------------------
 344:Generated_Source\PSoC4/SDCard_SPI.c **** ;
 345:Generated_Source\PSoC4/SDCard_SPI.c **** ;  ARGUMENTS:  none
 346:Generated_Source\PSoC4/SDCard_SPI.c **** ;
 347:Generated_Source\PSoC4/SDCard_SPI.c **** ;  RETURNS:
 348:Generated_Source\PSoC4/SDCard_SPI.c **** ;     bRxData - returned in A.
 349:Generated_Source\PSoC4/SDCard_SPI.c **** ;
 350:Generated_Source\PSoC4/SDCard_SPI.c **** ;  SIDE EFFECTS: 
 351:Generated_Source\PSoC4/SDCard_SPI.c **** ;    The A and X registers may be modified by this or future implementations
 352:Generated_Source\PSoC4/SDCard_SPI.c **** ;    of this function.  The same is true for all RAM page pointer registers in
 353:Generated_Source\PSoC4/SDCard_SPI.c **** ;    the Large Memory Model.  When necessary, it is the calling function's
 354:Generated_Source\PSoC4/SDCard_SPI.c **** ;    responsibility to perserve their values across calls to fastcall16 
 355:Generated_Source\PSoC4/SDCard_SPI.c **** ;    functions.
 356:Generated_Source\PSoC4/SDCard_SPI.c **** ;
 357:Generated_Source\PSoC4/SDCard_SPI.c **** ;  THEORY of OPERATION or PROCEDURE:
 358:Generated_Source\PSoC4/SDCard_SPI.c **** ;
 359:Generated_Source\PSoC4/SDCard_SPI.c **** */
 360:Generated_Source\PSoC4/SDCard_SPI.c **** uint8  SDCard_bReadRxData(void)
 361:Generated_Source\PSoC4/SDCard_SPI.c **** {
ARM GAS  C:\Users\BREYAN~1\AppData\Local\Temp\cczBBs9L.s 			page 15


 430              		.loc 1 361 0
 431              		.cfi_startproc
 432 0000 80B5     		push	{r7, lr}
 433              		.cfi_def_cfa_offset 8
 434              		.cfi_offset 7, -8
 435              		.cfi_offset 14, -4
 436 0002 82B0     		sub	sp, sp, #8
 437              		.cfi_def_cfa_offset 16
 438 0004 00AF     		add	r7, sp, #0
 439              		.cfi_def_cfa_register 7
 362:Generated_Source\PSoC4/SDCard_SPI.c **** 	uint8 buf;
 363:Generated_Source\PSoC4/SDCard_SPI.c **** 	buf = (uint8) SDCard_SPIM_SpiUartReadRxData();
 440              		.loc 1 363 0
 441 0006 FFF7FEFF 		bl	SDCard_SPIM_SpiUartReadRxData
 442 000a 021C     		mov	r2, r0
 443 000c FB1D     		add	r3, r7, #7
 444 000e 1A70     		strb	r2, [r3]
 364:Generated_Source\PSoC4/SDCard_SPI.c **** 	return(buf);
 445              		.loc 1 364 0
 446 0010 FB1D     		add	r3, r7, #7
 447 0012 1B78     		ldrb	r3, [r3]
 365:Generated_Source\PSoC4/SDCard_SPI.c **** }
 448              		.loc 1 365 0
 449 0014 181C     		mov	r0, r3
 450 0016 BD46     		mov	sp, r7
 451 0018 02B0     		add	sp, sp, #8
 452              		@ sp needed
 453 001a 80BD     		pop	{r7, pc}
 454              		.cfi_endproc
 455              	.LFE42:
 456              		.size	SDCard_bReadRxData, .-SDCard_bReadRxData
 457              		.section	.text.SDCard_bReadStatus,"ax",%progbits
 458              		.align	2
 459              		.global	SDCard_bReadStatus
 460              		.code	16
 461              		.thumb_func
 462              		.type	SDCard_bReadStatus, %function
 463              	SDCard_bReadStatus:
 464              	.LFB43:
 366:Generated_Source\PSoC4/SDCard_SPI.c **** 
 367:Generated_Source\PSoC4/SDCard_SPI.c **** /*
 368:Generated_Source\PSoC4/SDCard_SPI.c **** ;-----------------------------------------------------------------------------
 369:Generated_Source\PSoC4/SDCard_SPI.c **** ;  FUNCTION NAME: SDCard_ReadStatus
 370:Generated_Source\PSoC4/SDCard_SPI.c **** ;
 371:Generated_Source\PSoC4/SDCard_SPI.c **** ;  DESCRIPTION:
 372:Generated_Source\PSoC4/SDCard_SPI.c **** ;     Reads the SPIM Status bits in the Control/Status register.
 373:Generated_Source\PSoC4/SDCard_SPI.c **** ;
 374:Generated_Source\PSoC4/SDCard_SPI.c **** ;-----------------------------------------------------------------------------
 375:Generated_Source\PSoC4/SDCard_SPI.c **** ;
 376:Generated_Source\PSoC4/SDCard_SPI.c **** ;  ARGUMENTS:  none
 377:Generated_Source\PSoC4/SDCard_SPI.c **** ;
 378:Generated_Source\PSoC4/SDCard_SPI.c **** ;  RETURNS:
 379:Generated_Source\PSoC4/SDCard_SPI.c **** ;     uint8  bStatus - transmit status data.  Use the defined bit masks.
 380:Generated_Source\PSoC4/SDCard_SPI.c **** ;        Returned in Accumulator.
 381:Generated_Source\PSoC4/SDCard_SPI.c **** ;
 382:Generated_Source\PSoC4/SDCard_SPI.c **** ;  SIDE EFFECTS: 
 383:Generated_Source\PSoC4/SDCard_SPI.c **** ;    The A and X registers may be modified by this or future implementations
ARM GAS  C:\Users\BREYAN~1\AppData\Local\Temp\cczBBs9L.s 			page 16


 384:Generated_Source\PSoC4/SDCard_SPI.c **** ;    of this function.  The same is true for all RAM page pointer registers in
 385:Generated_Source\PSoC4/SDCard_SPI.c **** ;    the Large Memory Model.  When necessary, it is the calling function's
 386:Generated_Source\PSoC4/SDCard_SPI.c **** ;    responsibility to perserve their values across calls to fastcall16 
 387:Generated_Source\PSoC4/SDCard_SPI.c **** ;    functions.
 388:Generated_Source\PSoC4/SDCard_SPI.c **** ;
 389:Generated_Source\PSoC4/SDCard_SPI.c **** ;  THEORY of OPERATION or PROCEDURE:
 390:Generated_Source\PSoC4/SDCard_SPI.c **** ;     Read the status and control register.
 391:Generated_Source\PSoC4/SDCard_SPI.c **** ;
 392:Generated_Source\PSoC4/SDCard_SPI.c **** */
 393:Generated_Source\PSoC4/SDCard_SPI.c **** uint8  SDCard_bReadStatus(void)
 394:Generated_Source\PSoC4/SDCard_SPI.c **** {
 465              		.loc 1 394 0
 466              		.cfi_startproc
 467 0000 80B5     		push	{r7, lr}
 468              		.cfi_def_cfa_offset 8
 469              		.cfi_offset 7, -8
 470              		.cfi_offset 14, -4
 471 0002 82B0     		sub	sp, sp, #8
 472              		.cfi_def_cfa_offset 16
 473 0004 00AF     		add	r7, sp, #0
 474              		.cfi_def_cfa_register 7
 395:Generated_Source\PSoC4/SDCard_SPI.c **** 	uint8 stat;
 396:Generated_Source\PSoC4/SDCard_SPI.c **** 	stat = SDCard_SPIM_SpiUartGetRxBufferSize();
 475              		.loc 1 396 0
 476 0006 FFF7FEFF 		bl	SDCard_SPIM_SpiUartGetRxBufferSize
 477 000a 021C     		mov	r2, r0
 478 000c FB1D     		add	r3, r7, #7
 479 000e 1A70     		strb	r2, [r3]
 397:Generated_Source\PSoC4/SDCard_SPI.c **** 	return(stat);
 480              		.loc 1 397 0
 481 0010 FB1D     		add	r3, r7, #7
 482 0012 1B78     		ldrb	r3, [r3]
 398:Generated_Source\PSoC4/SDCard_SPI.c **** }
 483              		.loc 1 398 0
 484 0014 181C     		mov	r0, r3
 485 0016 BD46     		mov	sp, r7
 486 0018 02B0     		add	sp, sp, #8
 487              		@ sp needed
 488 001a 80BD     		pop	{r7, pc}
 489              		.cfi_endproc
 490              	.LFE43:
 491              		.size	SDCard_bReadStatus, .-SDCard_bReadStatus
 492              		.text
 493              	.Letext0:
 494              		.file 2 "Generated_Source\\PSoC4/cytypes.h"