ARM GAS  C:\Users\BREYAN~1\AppData\Local\Temp\ccFybxAI.s 			page 1


   1              		.cpu cortex-m0
   2              		.fpu softvfp
   3              		.eabi_attribute 20, 1
   4              		.eabi_attribute 21, 1
   5              		.eabi_attribute 23, 3
   6              		.eabi_attribute 24, 1
   7              		.eabi_attribute 25, 1
   8              		.eabi_attribute 26, 1
   9              		.eabi_attribute 30, 6
  10              		.eabi_attribute 34, 0
  11              		.eabi_attribute 18, 4
  12              		.code	16
  13              		.file	"SDCard_SPIM_SPI.c"
  14              		.text
  15              	.Ltext0:
  16              		.cfi_sections	.debug_frame
  17              		.section	.text.SDCard_SPIM_SpiInit,"ax",%progbits
  18              		.align	2
  19              		.global	SDCard_SPIM_SpiInit
  20              		.code	16
  21              		.thumb_func
  22              		.type	SDCard_SPIM_SpiInit, %function
  23              	SDCard_SPIM_SpiInit:
  24              	.LFB0:
  25              		.file 1 "Generated_Source\\PSoC4\\SDCard_SPIM_SPI.c"
   1:Generated_Source\PSoC4/SDCard_SPIM_SPI.c **** /***************************************************************************//**
   2:Generated_Source\PSoC4/SDCard_SPIM_SPI.c **** * \file SDCard_SPIM_SPI.c
   3:Generated_Source\PSoC4/SDCard_SPIM_SPI.c **** * \version 3.20
   4:Generated_Source\PSoC4/SDCard_SPIM_SPI.c **** *
   5:Generated_Source\PSoC4/SDCard_SPIM_SPI.c **** * \brief
   6:Generated_Source\PSoC4/SDCard_SPIM_SPI.c **** *  This file provides the source code to the API for the SCB Component in
   7:Generated_Source\PSoC4/SDCard_SPIM_SPI.c **** *  SPI mode.
   8:Generated_Source\PSoC4/SDCard_SPIM_SPI.c **** *
   9:Generated_Source\PSoC4/SDCard_SPIM_SPI.c **** * Note:
  10:Generated_Source\PSoC4/SDCard_SPIM_SPI.c **** *
  11:Generated_Source\PSoC4/SDCard_SPIM_SPI.c **** *******************************************************************************
  12:Generated_Source\PSoC4/SDCard_SPIM_SPI.c **** * \copyright
  13:Generated_Source\PSoC4/SDCard_SPIM_SPI.c **** * Copyright 2013-2016, Cypress Semiconductor Corporation.  All rights reserved.
  14:Generated_Source\PSoC4/SDCard_SPIM_SPI.c **** * You may use this file only in accordance with the license, terms, conditions,
  15:Generated_Source\PSoC4/SDCard_SPIM_SPI.c **** * disclaimers, and limitations in the end user license agreement accompanying
  16:Generated_Source\PSoC4/SDCard_SPIM_SPI.c **** * the software package with which this file was provided.
  17:Generated_Source\PSoC4/SDCard_SPIM_SPI.c **** *******************************************************************************/
  18:Generated_Source\PSoC4/SDCard_SPIM_SPI.c **** 
  19:Generated_Source\PSoC4/SDCard_SPIM_SPI.c **** #include "SDCard_SPIM_PVT.h"
  20:Generated_Source\PSoC4/SDCard_SPIM_SPI.c **** #include "SDCard_SPIM_SPI_UART_PVT.h"
  21:Generated_Source\PSoC4/SDCard_SPIM_SPI.c **** 
  22:Generated_Source\PSoC4/SDCard_SPIM_SPI.c **** #if(SDCard_SPIM_SCB_MODE_UNCONFIG_CONST_CFG)
  23:Generated_Source\PSoC4/SDCard_SPIM_SPI.c **** 
  24:Generated_Source\PSoC4/SDCard_SPIM_SPI.c ****     /***************************************
  25:Generated_Source\PSoC4/SDCard_SPIM_SPI.c ****     *  Configuration Structure Initialization
  26:Generated_Source\PSoC4/SDCard_SPIM_SPI.c ****     ***************************************/
  27:Generated_Source\PSoC4/SDCard_SPIM_SPI.c **** 
  28:Generated_Source\PSoC4/SDCard_SPIM_SPI.c ****     const SDCard_SPIM_SPI_INIT_STRUCT SDCard_SPIM_configSpi =
  29:Generated_Source\PSoC4/SDCard_SPIM_SPI.c ****     {
  30:Generated_Source\PSoC4/SDCard_SPIM_SPI.c ****         SDCard_SPIM_SPI_MODE,
  31:Generated_Source\PSoC4/SDCard_SPIM_SPI.c ****         SDCard_SPIM_SPI_SUB_MODE,
  32:Generated_Source\PSoC4/SDCard_SPIM_SPI.c ****         SDCard_SPIM_SPI_CLOCK_MODE,
ARM GAS  C:\Users\BREYAN~1\AppData\Local\Temp\ccFybxAI.s 			page 2


  33:Generated_Source\PSoC4/SDCard_SPIM_SPI.c ****         SDCard_SPIM_SPI_OVS_FACTOR,
  34:Generated_Source\PSoC4/SDCard_SPIM_SPI.c ****         SDCard_SPIM_SPI_MEDIAN_FILTER_ENABLE,
  35:Generated_Source\PSoC4/SDCard_SPIM_SPI.c ****         SDCard_SPIM_SPI_LATE_MISO_SAMPLE_ENABLE,
  36:Generated_Source\PSoC4/SDCard_SPIM_SPI.c ****         SDCard_SPIM_SPI_WAKE_ENABLE,
  37:Generated_Source\PSoC4/SDCard_SPIM_SPI.c ****         SDCard_SPIM_SPI_RX_DATA_BITS_NUM,
  38:Generated_Source\PSoC4/SDCard_SPIM_SPI.c ****         SDCard_SPIM_SPI_TX_DATA_BITS_NUM,
  39:Generated_Source\PSoC4/SDCard_SPIM_SPI.c ****         SDCard_SPIM_SPI_BITS_ORDER,
  40:Generated_Source\PSoC4/SDCard_SPIM_SPI.c ****         SDCard_SPIM_SPI_TRANSFER_SEPARATION,
  41:Generated_Source\PSoC4/SDCard_SPIM_SPI.c ****         0u,
  42:Generated_Source\PSoC4/SDCard_SPIM_SPI.c ****         NULL,
  43:Generated_Source\PSoC4/SDCard_SPIM_SPI.c ****         0u,
  44:Generated_Source\PSoC4/SDCard_SPIM_SPI.c ****         NULL,
  45:Generated_Source\PSoC4/SDCard_SPIM_SPI.c ****         (uint32) SDCard_SPIM_SCB_IRQ_INTERNAL,
  46:Generated_Source\PSoC4/SDCard_SPIM_SPI.c ****         SDCard_SPIM_SPI_INTR_RX_MASK,
  47:Generated_Source\PSoC4/SDCard_SPIM_SPI.c ****         SDCard_SPIM_SPI_RX_TRIGGER_LEVEL,
  48:Generated_Source\PSoC4/SDCard_SPIM_SPI.c ****         SDCard_SPIM_SPI_INTR_TX_MASK,
  49:Generated_Source\PSoC4/SDCard_SPIM_SPI.c ****         SDCard_SPIM_SPI_TX_TRIGGER_LEVEL,
  50:Generated_Source\PSoC4/SDCard_SPIM_SPI.c ****         (uint8) SDCard_SPIM_SPI_BYTE_MODE_ENABLE,
  51:Generated_Source\PSoC4/SDCard_SPIM_SPI.c ****         (uint8) SDCard_SPIM_SPI_FREE_RUN_SCLK_ENABLE,
  52:Generated_Source\PSoC4/SDCard_SPIM_SPI.c ****         (uint8) SDCard_SPIM_SPI_SS_POLARITY
  53:Generated_Source\PSoC4/SDCard_SPIM_SPI.c ****     };
  54:Generated_Source\PSoC4/SDCard_SPIM_SPI.c **** 
  55:Generated_Source\PSoC4/SDCard_SPIM_SPI.c **** 
  56:Generated_Source\PSoC4/SDCard_SPIM_SPI.c ****     /*******************************************************************************
  57:Generated_Source\PSoC4/SDCard_SPIM_SPI.c ****     * Function Name: SDCard_SPIM_SpiInit
  58:Generated_Source\PSoC4/SDCard_SPIM_SPI.c ****     ****************************************************************************//**
  59:Generated_Source\PSoC4/SDCard_SPIM_SPI.c ****     *
  60:Generated_Source\PSoC4/SDCard_SPIM_SPI.c ****     *  Configures the SDCard_SPIM for SPI operation.
  61:Generated_Source\PSoC4/SDCard_SPIM_SPI.c ****     *
  62:Generated_Source\PSoC4/SDCard_SPIM_SPI.c ****     *  This function is intended specifically to be used when the SDCard_SPIM 
  63:Generated_Source\PSoC4/SDCard_SPIM_SPI.c ****     *  configuration is set to “Unconfigured SDCard_SPIM” in the customizer. 
  64:Generated_Source\PSoC4/SDCard_SPIM_SPI.c ****     *  After initializing the SDCard_SPIM in SPI mode using this function, 
  65:Generated_Source\PSoC4/SDCard_SPIM_SPI.c ****     *  the component can be enabled using the SDCard_SPIM_Start() or 
  66:Generated_Source\PSoC4/SDCard_SPIM_SPI.c ****     * SDCard_SPIM_Enable() function.
  67:Generated_Source\PSoC4/SDCard_SPIM_SPI.c ****     *  This function uses a pointer to a structure that provides the configuration 
  68:Generated_Source\PSoC4/SDCard_SPIM_SPI.c ****     *  settings. This structure contains the same information that would otherwise 
  69:Generated_Source\PSoC4/SDCard_SPIM_SPI.c ****     *  be provided by the customizer settings.
  70:Generated_Source\PSoC4/SDCard_SPIM_SPI.c ****     *
  71:Generated_Source\PSoC4/SDCard_SPIM_SPI.c ****     *  \param config: pointer to a structure that contains the following list of 
  72:Generated_Source\PSoC4/SDCard_SPIM_SPI.c ****     *   fields. These fields match the selections available in the customizer. 
  73:Generated_Source\PSoC4/SDCard_SPIM_SPI.c ****     *   Refer to the customizer for further description of the settings.
  74:Generated_Source\PSoC4/SDCard_SPIM_SPI.c ****     *
  75:Generated_Source\PSoC4/SDCard_SPIM_SPI.c ****     *******************************************************************************/
  76:Generated_Source\PSoC4/SDCard_SPIM_SPI.c ****     void SDCard_SPIM_SpiInit(const SDCard_SPIM_SPI_INIT_STRUCT *config)
  77:Generated_Source\PSoC4/SDCard_SPIM_SPI.c ****     {
  78:Generated_Source\PSoC4/SDCard_SPIM_SPI.c ****         if(NULL == config)
  79:Generated_Source\PSoC4/SDCard_SPIM_SPI.c ****         {
  80:Generated_Source\PSoC4/SDCard_SPIM_SPI.c ****             CYASSERT(0u != 0u); /* Halt execution due to bad function parameter */
  81:Generated_Source\PSoC4/SDCard_SPIM_SPI.c ****         }
  82:Generated_Source\PSoC4/SDCard_SPIM_SPI.c ****         else
  83:Generated_Source\PSoC4/SDCard_SPIM_SPI.c ****         {
  84:Generated_Source\PSoC4/SDCard_SPIM_SPI.c ****             /* Configure pins */
  85:Generated_Source\PSoC4/SDCard_SPIM_SPI.c ****             SDCard_SPIM_SetPins(SDCard_SPIM_SCB_MODE_SPI, config->mode, SDCard_SPIM_DUMMY_PARAM);
  86:Generated_Source\PSoC4/SDCard_SPIM_SPI.c **** 
  87:Generated_Source\PSoC4/SDCard_SPIM_SPI.c ****             /* Store internal configuration */
  88:Generated_Source\PSoC4/SDCard_SPIM_SPI.c ****             SDCard_SPIM_scbMode       = (uint8) SDCard_SPIM_SCB_MODE_SPI;
  89:Generated_Source\PSoC4/SDCard_SPIM_SPI.c ****             SDCard_SPIM_scbEnableWake = (uint8) config->enableWake;
ARM GAS  C:\Users\BREYAN~1\AppData\Local\Temp\ccFybxAI.s 			page 3


  90:Generated_Source\PSoC4/SDCard_SPIM_SPI.c ****             SDCard_SPIM_scbEnableIntr = (uint8) config->enableInterrupt;
  91:Generated_Source\PSoC4/SDCard_SPIM_SPI.c **** 
  92:Generated_Source\PSoC4/SDCard_SPIM_SPI.c ****             /* Set RX direction internal variables */
  93:Generated_Source\PSoC4/SDCard_SPIM_SPI.c ****             SDCard_SPIM_rxBuffer      =         config->rxBuffer;
  94:Generated_Source\PSoC4/SDCard_SPIM_SPI.c ****             SDCard_SPIM_rxDataBits    = (uint8) config->rxDataBits;
  95:Generated_Source\PSoC4/SDCard_SPIM_SPI.c ****             SDCard_SPIM_rxBufferSize  = (uint8) config->rxBufferSize;
  96:Generated_Source\PSoC4/SDCard_SPIM_SPI.c **** 
  97:Generated_Source\PSoC4/SDCard_SPIM_SPI.c ****             /* Set TX direction internal variables */
  98:Generated_Source\PSoC4/SDCard_SPIM_SPI.c ****             SDCard_SPIM_txBuffer      =         config->txBuffer;
  99:Generated_Source\PSoC4/SDCard_SPIM_SPI.c ****             SDCard_SPIM_txDataBits    = (uint8) config->txDataBits;
 100:Generated_Source\PSoC4/SDCard_SPIM_SPI.c ****             SDCard_SPIM_txBufferSize  = (uint8) config->txBufferSize;
 101:Generated_Source\PSoC4/SDCard_SPIM_SPI.c **** 
 102:Generated_Source\PSoC4/SDCard_SPIM_SPI.c ****             /* Configure SPI interface */
 103:Generated_Source\PSoC4/SDCard_SPIM_SPI.c ****             SDCard_SPIM_CTRL_REG     = SDCard_SPIM_GET_CTRL_OVS(config->oversample)           |
 104:Generated_Source\PSoC4/SDCard_SPIM_SPI.c ****                                             SDCard_SPIM_GET_CTRL_BYTE_MODE(config->enableByteMode) 
 105:Generated_Source\PSoC4/SDCard_SPIM_SPI.c ****                                             SDCard_SPIM_GET_CTRL_EC_AM_MODE(config->enableWake)    
 106:Generated_Source\PSoC4/SDCard_SPIM_SPI.c ****                                             SDCard_SPIM_CTRL_SPI;
 107:Generated_Source\PSoC4/SDCard_SPIM_SPI.c **** 
 108:Generated_Source\PSoC4/SDCard_SPIM_SPI.c ****             SDCard_SPIM_SPI_CTRL_REG = SDCard_SPIM_GET_SPI_CTRL_CONTINUOUS    (config->transferSepe
 109:Generated_Source\PSoC4/SDCard_SPIM_SPI.c ****                                             SDCard_SPIM_GET_SPI_CTRL_SELECT_PRECEDE(config->submode
 110:Generated_Source\PSoC4/SDCard_SPIM_SPI.c ****                                                                           SDCard_SPIM_SPI_MODE_TI_P
 111:Generated_Source\PSoC4/SDCard_SPIM_SPI.c ****                                             SDCard_SPIM_GET_SPI_CTRL_SCLK_MODE     (config->sclkMod
 112:Generated_Source\PSoC4/SDCard_SPIM_SPI.c ****                                             SDCard_SPIM_GET_SPI_CTRL_LATE_MISO_SAMPLE(config->enabl
 113:Generated_Source\PSoC4/SDCard_SPIM_SPI.c ****                                             SDCard_SPIM_GET_SPI_CTRL_SCLK_CONTINUOUS(config->enable
 114:Generated_Source\PSoC4/SDCard_SPIM_SPI.c ****                                             SDCard_SPIM_GET_SPI_CTRL_SSEL_POLARITY (config->polarit
 115:Generated_Source\PSoC4/SDCard_SPIM_SPI.c ****                                             SDCard_SPIM_GET_SPI_CTRL_SUB_MODE      (config->submode
 116:Generated_Source\PSoC4/SDCard_SPIM_SPI.c ****                                             SDCard_SPIM_GET_SPI_CTRL_MASTER_MODE   (config->mode);
 117:Generated_Source\PSoC4/SDCard_SPIM_SPI.c **** 
 118:Generated_Source\PSoC4/SDCard_SPIM_SPI.c ****             /* Configure RX direction */
 119:Generated_Source\PSoC4/SDCard_SPIM_SPI.c ****             SDCard_SPIM_RX_CTRL_REG     =  SDCard_SPIM_GET_RX_CTRL_DATA_WIDTH(config->rxDataBits)  
 120:Generated_Source\PSoC4/SDCard_SPIM_SPI.c ****                                                 SDCard_SPIM_GET_RX_CTRL_BIT_ORDER (config->bitOrder
 121:Generated_Source\PSoC4/SDCard_SPIM_SPI.c ****                                                 SDCard_SPIM_GET_RX_CTRL_MEDIAN    (config->enableMe
 122:Generated_Source\PSoC4/SDCard_SPIM_SPI.c ****                                                 SDCard_SPIM_SPI_RX_CTRL;
 123:Generated_Source\PSoC4/SDCard_SPIM_SPI.c **** 
 124:Generated_Source\PSoC4/SDCard_SPIM_SPI.c ****             SDCard_SPIM_RX_FIFO_CTRL_REG = SDCard_SPIM_GET_RX_FIFO_CTRL_TRIGGER_LEVEL(config->rxTri
 125:Generated_Source\PSoC4/SDCard_SPIM_SPI.c **** 
 126:Generated_Source\PSoC4/SDCard_SPIM_SPI.c ****             /* Configure TX direction */
 127:Generated_Source\PSoC4/SDCard_SPIM_SPI.c ****             SDCard_SPIM_TX_CTRL_REG      = SDCard_SPIM_GET_TX_CTRL_DATA_WIDTH(config->txDataBits) |
 128:Generated_Source\PSoC4/SDCard_SPIM_SPI.c ****                                                 SDCard_SPIM_GET_TX_CTRL_BIT_ORDER (config->bitOrder
 129:Generated_Source\PSoC4/SDCard_SPIM_SPI.c ****                                                 SDCard_SPIM_SPI_TX_CTRL;
 130:Generated_Source\PSoC4/SDCard_SPIM_SPI.c **** 
 131:Generated_Source\PSoC4/SDCard_SPIM_SPI.c ****             SDCard_SPIM_TX_FIFO_CTRL_REG = SDCard_SPIM_GET_TX_FIFO_CTRL_TRIGGER_LEVEL(config->txTri
 132:Generated_Source\PSoC4/SDCard_SPIM_SPI.c **** 
 133:Generated_Source\PSoC4/SDCard_SPIM_SPI.c ****             /* Configure interrupt with SPI handler but do not enable it */
 134:Generated_Source\PSoC4/SDCard_SPIM_SPI.c ****             CyIntDisable    (SDCard_SPIM_ISR_NUMBER);
 135:Generated_Source\PSoC4/SDCard_SPIM_SPI.c ****             CyIntSetPriority(SDCard_SPIM_ISR_NUMBER, SDCard_SPIM_ISR_PRIORITY);
 136:Generated_Source\PSoC4/SDCard_SPIM_SPI.c ****             (void) CyIntSetVector(SDCard_SPIM_ISR_NUMBER, &SDCard_SPIM_SPI_UART_ISR);
 137:Generated_Source\PSoC4/SDCard_SPIM_SPI.c **** 
 138:Generated_Source\PSoC4/SDCard_SPIM_SPI.c ****             /* Configure interrupt sources */
 139:Generated_Source\PSoC4/SDCard_SPIM_SPI.c ****             SDCard_SPIM_INTR_I2C_EC_MASK_REG = SDCard_SPIM_NO_INTR_SOURCES;
 140:Generated_Source\PSoC4/SDCard_SPIM_SPI.c ****             SDCard_SPIM_INTR_SPI_EC_MASK_REG = SDCard_SPIM_NO_INTR_SOURCES;
 141:Generated_Source\PSoC4/SDCard_SPIM_SPI.c ****             SDCard_SPIM_INTR_SLAVE_MASK_REG  = SDCard_SPIM_GET_SPI_INTR_SLAVE_MASK(config->rxInterr
 142:Generated_Source\PSoC4/SDCard_SPIM_SPI.c ****             SDCard_SPIM_INTR_MASTER_MASK_REG = SDCard_SPIM_GET_SPI_INTR_MASTER_MASK(config->txInter
 143:Generated_Source\PSoC4/SDCard_SPIM_SPI.c ****             SDCard_SPIM_INTR_RX_MASK_REG     = SDCard_SPIM_GET_SPI_INTR_RX_MASK(config->rxInterrupt
 144:Generated_Source\PSoC4/SDCard_SPIM_SPI.c ****             SDCard_SPIM_INTR_TX_MASK_REG     = SDCard_SPIM_GET_SPI_INTR_TX_MASK(config->txInterrupt
 145:Generated_Source\PSoC4/SDCard_SPIM_SPI.c ****             
 146:Generated_Source\PSoC4/SDCard_SPIM_SPI.c ****             /* Configure TX interrupt sources to restore. */
ARM GAS  C:\Users\BREYAN~1\AppData\Local\Temp\ccFybxAI.s 			page 4


 147:Generated_Source\PSoC4/SDCard_SPIM_SPI.c ****             SDCard_SPIM_IntrTxMask = LO16(SDCard_SPIM_INTR_TX_MASK_REG);
 148:Generated_Source\PSoC4/SDCard_SPIM_SPI.c **** 
 149:Generated_Source\PSoC4/SDCard_SPIM_SPI.c ****             /* Set active SS0 */
 150:Generated_Source\PSoC4/SDCard_SPIM_SPI.c ****             SDCard_SPIM_SpiSetActiveSlaveSelect(SDCard_SPIM_SPI_SLAVE_SELECT0);
 151:Generated_Source\PSoC4/SDCard_SPIM_SPI.c **** 
 152:Generated_Source\PSoC4/SDCard_SPIM_SPI.c ****             /* Clear RX buffer indexes */
 153:Generated_Source\PSoC4/SDCard_SPIM_SPI.c ****             SDCard_SPIM_rxBufferHead     = 0u;
 154:Generated_Source\PSoC4/SDCard_SPIM_SPI.c ****             SDCard_SPIM_rxBufferTail     = 0u;
 155:Generated_Source\PSoC4/SDCard_SPIM_SPI.c ****             SDCard_SPIM_rxBufferOverflow = 0u;
 156:Generated_Source\PSoC4/SDCard_SPIM_SPI.c **** 
 157:Generated_Source\PSoC4/SDCard_SPIM_SPI.c ****             /* Clear TX buffer indexes */
 158:Generated_Source\PSoC4/SDCard_SPIM_SPI.c ****             SDCard_SPIM_txBufferHead = 0u;
 159:Generated_Source\PSoC4/SDCard_SPIM_SPI.c ****             SDCard_SPIM_txBufferTail = 0u;
 160:Generated_Source\PSoC4/SDCard_SPIM_SPI.c ****         }
 161:Generated_Source\PSoC4/SDCard_SPIM_SPI.c ****     }
 162:Generated_Source\PSoC4/SDCard_SPIM_SPI.c **** 
 163:Generated_Source\PSoC4/SDCard_SPIM_SPI.c **** #else
 164:Generated_Source\PSoC4/SDCard_SPIM_SPI.c **** 
 165:Generated_Source\PSoC4/SDCard_SPIM_SPI.c ****     /*******************************************************************************
 166:Generated_Source\PSoC4/SDCard_SPIM_SPI.c ****     * Function Name: SDCard_SPIM_SpiInit
 167:Generated_Source\PSoC4/SDCard_SPIM_SPI.c ****     ****************************************************************************//**
 168:Generated_Source\PSoC4/SDCard_SPIM_SPI.c ****     *
 169:Generated_Source\PSoC4/SDCard_SPIM_SPI.c ****     *  Configures the SCB for the SPI operation.
 170:Generated_Source\PSoC4/SDCard_SPIM_SPI.c ****     *
 171:Generated_Source\PSoC4/SDCard_SPIM_SPI.c ****     *******************************************************************************/
 172:Generated_Source\PSoC4/SDCard_SPIM_SPI.c ****     void SDCard_SPIM_SpiInit(void)
 173:Generated_Source\PSoC4/SDCard_SPIM_SPI.c ****     {
  26              		.loc 1 173 0
  27              		.cfi_startproc
  28 0000 80B5     		push	{r7, lr}
  29              		.cfi_def_cfa_offset 8
  30              		.cfi_offset 7, -8
  31              		.cfi_offset 14, -4
  32 0002 00AF     		add	r7, sp, #0
  33              		.cfi_def_cfa_register 7
 174:Generated_Source\PSoC4/SDCard_SPIM_SPI.c ****         /* Configure SPI interface */
 175:Generated_Source\PSoC4/SDCard_SPIM_SPI.c ****         SDCard_SPIM_CTRL_REG     = SDCard_SPIM_SPI_DEFAULT_CTRL;
  34              		.loc 1 175 0
  35 0004 1C4B     		ldr	r3, .L2
  36 0006 1D4A     		ldr	r2, .L2+4
  37 0008 1A60     		str	r2, [r3]
 176:Generated_Source\PSoC4/SDCard_SPIM_SPI.c ****         SDCard_SPIM_SPI_CTRL_REG = SDCard_SPIM_SPI_DEFAULT_SPI_CTRL;
  38              		.loc 1 176 0
  39 000a 1D4B     		ldr	r3, .L2+8
  40 000c 1D4A     		ldr	r2, .L2+12
  41 000e 1A60     		str	r2, [r3]
 177:Generated_Source\PSoC4/SDCard_SPIM_SPI.c **** 
 178:Generated_Source\PSoC4/SDCard_SPIM_SPI.c ****         /* Configure TX and RX direction */
 179:Generated_Source\PSoC4/SDCard_SPIM_SPI.c ****         SDCard_SPIM_RX_CTRL_REG      = SDCard_SPIM_SPI_DEFAULT_RX_CTRL;
  42              		.loc 1 179 0
  43 0010 1D4B     		ldr	r3, .L2+16
  44 0012 1E4A     		ldr	r2, .L2+20
  45 0014 1A60     		str	r2, [r3]
 180:Generated_Source\PSoC4/SDCard_SPIM_SPI.c ****         SDCard_SPIM_RX_FIFO_CTRL_REG = SDCard_SPIM_SPI_DEFAULT_RX_FIFO_CTRL;
  46              		.loc 1 180 0
  47 0016 1E4B     		ldr	r3, .L2+24
  48 0018 0722     		mov	r2, #7
ARM GAS  C:\Users\BREYAN~1\AppData\Local\Temp\ccFybxAI.s 			page 5


  49 001a 1A60     		str	r2, [r3]
 181:Generated_Source\PSoC4/SDCard_SPIM_SPI.c **** 
 182:Generated_Source\PSoC4/SDCard_SPIM_SPI.c ****         /* Configure TX and RX direction */
 183:Generated_Source\PSoC4/SDCard_SPIM_SPI.c ****         SDCard_SPIM_TX_CTRL_REG      = SDCard_SPIM_SPI_DEFAULT_TX_CTRL;
  50              		.loc 1 183 0
  51 001c 1D4B     		ldr	r3, .L2+28
  52 001e 1B4A     		ldr	r2, .L2+20
  53 0020 1A60     		str	r2, [r3]
 184:Generated_Source\PSoC4/SDCard_SPIM_SPI.c ****         SDCard_SPIM_TX_FIFO_CTRL_REG = SDCard_SPIM_SPI_DEFAULT_TX_FIFO_CTRL;
  54              		.loc 1 184 0
  55 0022 1D4B     		ldr	r3, .L2+32
  56 0024 0022     		mov	r2, #0
  57 0026 1A60     		str	r2, [r3]
 185:Generated_Source\PSoC4/SDCard_SPIM_SPI.c **** 
 186:Generated_Source\PSoC4/SDCard_SPIM_SPI.c ****         /* Configure interrupt with SPI handler but do not enable it */
 187:Generated_Source\PSoC4/SDCard_SPIM_SPI.c ****     #if(SDCard_SPIM_SCB_IRQ_INTERNAL)
 188:Generated_Source\PSoC4/SDCard_SPIM_SPI.c ****             CyIntDisable    (SDCard_SPIM_ISR_NUMBER);
  58              		.loc 1 188 0
  59 0028 0B20     		mov	r0, #11
  60 002a FFF7FEFF 		bl	CyIntDisable
 189:Generated_Source\PSoC4/SDCard_SPIM_SPI.c ****             CyIntSetPriority(SDCard_SPIM_ISR_NUMBER, SDCard_SPIM_ISR_PRIORITY);
  61              		.loc 1 189 0
  62 002e 0B20     		mov	r0, #11
  63 0030 0321     		mov	r1, #3
  64 0032 FFF7FEFF 		bl	CyIntSetPriority
 190:Generated_Source\PSoC4/SDCard_SPIM_SPI.c ****             (void) CyIntSetVector(SDCard_SPIM_ISR_NUMBER, &SDCard_SPIM_SPI_UART_ISR);
  65              		.loc 1 190 0
  66 0036 194B     		ldr	r3, .L2+36
  67 0038 0B20     		mov	r0, #11
  68 003a 191C     		mov	r1, r3
  69 003c FFF7FEFF 		bl	CyIntSetVector
 191:Generated_Source\PSoC4/SDCard_SPIM_SPI.c ****     #endif /* (SDCard_SPIM_SCB_IRQ_INTERNAL) */
 192:Generated_Source\PSoC4/SDCard_SPIM_SPI.c **** 
 193:Generated_Source\PSoC4/SDCard_SPIM_SPI.c ****         /* Configure interrupt sources */
 194:Generated_Source\PSoC4/SDCard_SPIM_SPI.c ****         SDCard_SPIM_INTR_I2C_EC_MASK_REG = SDCard_SPIM_SPI_DEFAULT_INTR_I2C_EC_MASK;
  70              		.loc 1 194 0
  71 0040 174B     		ldr	r3, .L2+40
  72 0042 0022     		mov	r2, #0
  73 0044 1A60     		str	r2, [r3]
 195:Generated_Source\PSoC4/SDCard_SPIM_SPI.c ****         SDCard_SPIM_INTR_SPI_EC_MASK_REG = SDCard_SPIM_SPI_DEFAULT_INTR_SPI_EC_MASK;
  74              		.loc 1 195 0
  75 0046 174B     		ldr	r3, .L2+44
  76 0048 0022     		mov	r2, #0
  77 004a 1A60     		str	r2, [r3]
 196:Generated_Source\PSoC4/SDCard_SPIM_SPI.c ****         SDCard_SPIM_INTR_SLAVE_MASK_REG  = SDCard_SPIM_SPI_DEFAULT_INTR_SLAVE_MASK;
  78              		.loc 1 196 0
  79 004c 164B     		ldr	r3, .L2+48
  80 004e 0022     		mov	r2, #0
  81 0050 1A60     		str	r2, [r3]
 197:Generated_Source\PSoC4/SDCard_SPIM_SPI.c ****         SDCard_SPIM_INTR_MASTER_MASK_REG = SDCard_SPIM_SPI_DEFAULT_INTR_MASTER_MASK;
  82              		.loc 1 197 0
  83 0052 164B     		ldr	r3, .L2+52
  84 0054 0022     		mov	r2, #0
  85 0056 1A60     		str	r2, [r3]
 198:Generated_Source\PSoC4/SDCard_SPIM_SPI.c ****         SDCard_SPIM_INTR_RX_MASK_REG     = SDCard_SPIM_SPI_DEFAULT_INTR_RX_MASK;
  86              		.loc 1 198 0
  87 0058 154B     		ldr	r3, .L2+56
ARM GAS  C:\Users\BREYAN~1\AppData\Local\Temp\ccFybxAI.s 			page 6


  88 005a 0022     		mov	r2, #0
  89 005c 1A60     		str	r2, [r3]
 199:Generated_Source\PSoC4/SDCard_SPIM_SPI.c ****         SDCard_SPIM_INTR_TX_MASK_REG     = SDCard_SPIM_SPI_DEFAULT_INTR_TX_MASK;
  90              		.loc 1 199 0
  91 005e 154B     		ldr	r3, .L2+60
  92 0060 0022     		mov	r2, #0
  93 0062 1A60     		str	r2, [r3]
 200:Generated_Source\PSoC4/SDCard_SPIM_SPI.c **** 
 201:Generated_Source\PSoC4/SDCard_SPIM_SPI.c ****         /* Configure TX interrupt sources to restore. */
 202:Generated_Source\PSoC4/SDCard_SPIM_SPI.c ****         SDCard_SPIM_IntrTxMask = LO16(SDCard_SPIM_INTR_TX_MASK_REG);
  94              		.loc 1 202 0
  95 0064 134B     		ldr	r3, .L2+60
  96 0066 1B68     		ldr	r3, [r3]
  97 0068 9AB2     		uxth	r2, r3
  98 006a 134B     		ldr	r3, .L2+64
  99 006c 1A80     		strh	r2, [r3]
 203:Generated_Source\PSoC4/SDCard_SPIM_SPI.c ****             
 204:Generated_Source\PSoC4/SDCard_SPIM_SPI.c ****         /* Set active SS0 for master */
 205:Generated_Source\PSoC4/SDCard_SPIM_SPI.c ****     #if (SDCard_SPIM_SPI_MASTER_CONST)
 206:Generated_Source\PSoC4/SDCard_SPIM_SPI.c ****         SDCard_SPIM_SpiSetActiveSlaveSelect(SDCard_SPIM_SPI_SLAVE_SELECT0);
 100              		.loc 1 206 0
 101 006e 0020     		mov	r0, #0
 102 0070 FFF7FEFF 		bl	SDCard_SPIM_SpiSetActiveSlaveSelect
 207:Generated_Source\PSoC4/SDCard_SPIM_SPI.c ****     #endif /* (SDCard_SPIM_SPI_MASTER_CONST) */
 208:Generated_Source\PSoC4/SDCard_SPIM_SPI.c **** 
 209:Generated_Source\PSoC4/SDCard_SPIM_SPI.c ****     #if(SDCard_SPIM_INTERNAL_RX_SW_BUFFER_CONST)
 210:Generated_Source\PSoC4/SDCard_SPIM_SPI.c ****         SDCard_SPIM_rxBufferHead     = 0u;
 211:Generated_Source\PSoC4/SDCard_SPIM_SPI.c ****         SDCard_SPIM_rxBufferTail     = 0u;
 212:Generated_Source\PSoC4/SDCard_SPIM_SPI.c ****         SDCard_SPIM_rxBufferOverflow = 0u;
 213:Generated_Source\PSoC4/SDCard_SPIM_SPI.c ****     #endif /* (SDCard_SPIM_INTERNAL_RX_SW_BUFFER_CONST) */
 214:Generated_Source\PSoC4/SDCard_SPIM_SPI.c **** 
 215:Generated_Source\PSoC4/SDCard_SPIM_SPI.c ****     #if(SDCard_SPIM_INTERNAL_TX_SW_BUFFER_CONST)
 216:Generated_Source\PSoC4/SDCard_SPIM_SPI.c ****         SDCard_SPIM_txBufferHead = 0u;
 217:Generated_Source\PSoC4/SDCard_SPIM_SPI.c ****         SDCard_SPIM_txBufferTail = 0u;
 218:Generated_Source\PSoC4/SDCard_SPIM_SPI.c ****     #endif /* (SDCard_SPIM_INTERNAL_TX_SW_BUFFER_CONST) */
 219:Generated_Source\PSoC4/SDCard_SPIM_SPI.c ****     }
 103              		.loc 1 219 0
 104 0074 BD46     		mov	sp, r7
 105              		@ sp needed
 106 0076 80BD     		pop	{r7, pc}
 107              	.L3:
 108              		.align	2
 109              	.L2:
 110 0078 00000740 		.word	1074200576
 111 007c 05000001 		.word	16777221
 112 0080 20000740 		.word	1074200608
 113 0084 11000080 		.word	-2147483631
 114 0088 00030740 		.word	1074201344
 115 008c 07010080 		.word	-2147483385
 116 0090 04030740 		.word	1074201348
 117 0094 00020740 		.word	1074201088
 118 0098 04020740 		.word	1074201092
 119 009c 00000000 		.word	SDCard_SPIM_SPI_UART_ISR
 120 00a0 880E0740 		.word	1074204296
 121 00a4 C80E0740 		.word	1074204360
 122 00a8 480F0740 		.word	1074204488
 123 00ac 080F0740 		.word	1074204424
ARM GAS  C:\Users\BREYAN~1\AppData\Local\Temp\ccFybxAI.s 			page 7


 124 00b0 C80F0740 		.word	1074204616
 125 00b4 880F0740 		.word	1074204552
 126 00b8 00000000 		.word	SDCard_SPIM_IntrTxMask
 127              		.cfi_endproc
 128              	.LFE0:
 129              		.size	SDCard_SPIM_SpiInit, .-SDCard_SPIM_SpiInit
 130              		.section	.text.SDCard_SPIM_SpiPostEnable,"ax",%progbits
 131              		.align	2
 132              		.global	SDCard_SPIM_SpiPostEnable
 133              		.code	16
 134              		.thumb_func
 135              		.type	SDCard_SPIM_SpiPostEnable, %function
 136              	SDCard_SPIM_SpiPostEnable:
 137              	.LFB1:
 220:Generated_Source\PSoC4/SDCard_SPIM_SPI.c **** #endif /* (SDCard_SPIM_SCB_MODE_UNCONFIG_CONST_CFG) */
 221:Generated_Source\PSoC4/SDCard_SPIM_SPI.c **** 
 222:Generated_Source\PSoC4/SDCard_SPIM_SPI.c **** 
 223:Generated_Source\PSoC4/SDCard_SPIM_SPI.c **** /*******************************************************************************
 224:Generated_Source\PSoC4/SDCard_SPIM_SPI.c **** * Function Name: SDCard_SPIM_SpiPostEnable
 225:Generated_Source\PSoC4/SDCard_SPIM_SPI.c **** ****************************************************************************//**
 226:Generated_Source\PSoC4/SDCard_SPIM_SPI.c **** *
 227:Generated_Source\PSoC4/SDCard_SPIM_SPI.c **** *  Restores HSIOM settings for the SPI master output pins (SCLK and/or SS0-SS3) 
 228:Generated_Source\PSoC4/SDCard_SPIM_SPI.c **** *  to be controlled by the SCB SPI.
 229:Generated_Source\PSoC4/SDCard_SPIM_SPI.c **** *
 230:Generated_Source\PSoC4/SDCard_SPIM_SPI.c **** *******************************************************************************/
 231:Generated_Source\PSoC4/SDCard_SPIM_SPI.c **** void SDCard_SPIM_SpiPostEnable(void)
 232:Generated_Source\PSoC4/SDCard_SPIM_SPI.c **** {
 138              		.loc 1 232 0
 139              		.cfi_startproc
 140 0000 80B5     		push	{r7, lr}
 141              		.cfi_def_cfa_offset 8
 142              		.cfi_offset 7, -8
 143              		.cfi_offset 14, -4
 144 0002 00AF     		add	r7, sp, #0
 145              		.cfi_def_cfa_register 7
 233:Generated_Source\PSoC4/SDCard_SPIM_SPI.c **** #if(SDCard_SPIM_SCB_MODE_UNCONFIG_CONST_CFG)
 234:Generated_Source\PSoC4/SDCard_SPIM_SPI.c **** 
 235:Generated_Source\PSoC4/SDCard_SPIM_SPI.c ****     if (SDCard_SPIM_CHECK_SPI_MASTER)
 236:Generated_Source\PSoC4/SDCard_SPIM_SPI.c ****     {
 237:Generated_Source\PSoC4/SDCard_SPIM_SPI.c ****     #if (SDCard_SPIM_SCLK_PIN)
 238:Generated_Source\PSoC4/SDCard_SPIM_SPI.c ****         /* Set SCB SPI to drive output pin */
 239:Generated_Source\PSoC4/SDCard_SPIM_SPI.c ****         SDCard_SPIM_SET_HSIOM_SEL(SDCard_SPIM_SCLK_HSIOM_REG, SDCard_SPIM_SCLK_HSIOM_MASK,
 240:Generated_Source\PSoC4/SDCard_SPIM_SPI.c ****                                        SDCard_SPIM_SCLK_HSIOM_POS, SDCard_SPIM_SCLK_HSIOM_SEL_SPI);
 241:Generated_Source\PSoC4/SDCard_SPIM_SPI.c ****     #endif /* (SDCard_SPIM_SCLK_PIN) */
 242:Generated_Source\PSoC4/SDCard_SPIM_SPI.c **** 
 243:Generated_Source\PSoC4/SDCard_SPIM_SPI.c ****     #if (SDCard_SPIM_SS0_PIN)
 244:Generated_Source\PSoC4/SDCard_SPIM_SPI.c ****         /* Set SCB SPI to drive output pin */
 245:Generated_Source\PSoC4/SDCard_SPIM_SPI.c ****         SDCard_SPIM_SET_HSIOM_SEL(SDCard_SPIM_SS0_HSIOM_REG, SDCard_SPIM_SS0_HSIOM_MASK,
 246:Generated_Source\PSoC4/SDCard_SPIM_SPI.c ****                                        SDCard_SPIM_SS0_HSIOM_POS, SDCard_SPIM_SS0_HSIOM_SEL_SPI);
 247:Generated_Source\PSoC4/SDCard_SPIM_SPI.c ****     #endif /* (SDCard_SPIM_SS0_PIN) */
 248:Generated_Source\PSoC4/SDCard_SPIM_SPI.c **** 
 249:Generated_Source\PSoC4/SDCard_SPIM_SPI.c ****     #if (SDCard_SPIM_SS1_PIN)
 250:Generated_Source\PSoC4/SDCard_SPIM_SPI.c ****         /* Set SCB SPI to drive output pin */
 251:Generated_Source\PSoC4/SDCard_SPIM_SPI.c ****         SDCard_SPIM_SET_HSIOM_SEL(SDCard_SPIM_SS1_HSIOM_REG, SDCard_SPIM_SS1_HSIOM_MASK,
 252:Generated_Source\PSoC4/SDCard_SPIM_SPI.c ****                                        SDCard_SPIM_SS1_HSIOM_POS, SDCard_SPIM_SS1_HSIOM_SEL_SPI);
 253:Generated_Source\PSoC4/SDCard_SPIM_SPI.c ****     #endif /* (SDCard_SPIM_SS1_PIN) */
 254:Generated_Source\PSoC4/SDCard_SPIM_SPI.c **** 
ARM GAS  C:\Users\BREYAN~1\AppData\Local\Temp\ccFybxAI.s 			page 8


 255:Generated_Source\PSoC4/SDCard_SPIM_SPI.c ****     #if (SDCard_SPIM_SS2_PIN)
 256:Generated_Source\PSoC4/SDCard_SPIM_SPI.c ****         /* Set SCB SPI to drive output pin */
 257:Generated_Source\PSoC4/SDCard_SPIM_SPI.c ****         SDCard_SPIM_SET_HSIOM_SEL(SDCard_SPIM_SS2_HSIOM_REG, SDCard_SPIM_SS2_HSIOM_MASK,
 258:Generated_Source\PSoC4/SDCard_SPIM_SPI.c ****                                        SDCard_SPIM_SS2_HSIOM_POS, SDCard_SPIM_SS2_HSIOM_SEL_SPI);
 259:Generated_Source\PSoC4/SDCard_SPIM_SPI.c ****     #endif /* (SDCard_SPIM_SS2_PIN) */
 260:Generated_Source\PSoC4/SDCard_SPIM_SPI.c **** 
 261:Generated_Source\PSoC4/SDCard_SPIM_SPI.c ****     #if (SDCard_SPIM_SS3_PIN)
 262:Generated_Source\PSoC4/SDCard_SPIM_SPI.c ****         /* Set SCB SPI to drive output pin */
 263:Generated_Source\PSoC4/SDCard_SPIM_SPI.c ****         SDCard_SPIM_SET_HSIOM_SEL(SDCard_SPIM_SS3_HSIOM_REG, SDCard_SPIM_SS3_HSIOM_MASK,
 264:Generated_Source\PSoC4/SDCard_SPIM_SPI.c ****                                        SDCard_SPIM_SS3_HSIOM_POS, SDCard_SPIM_SS3_HSIOM_SEL_SPI);
 265:Generated_Source\PSoC4/SDCard_SPIM_SPI.c ****     #endif /* (SDCard_SPIM_SS3_PIN) */
 266:Generated_Source\PSoC4/SDCard_SPIM_SPI.c ****     }
 267:Generated_Source\PSoC4/SDCard_SPIM_SPI.c **** 
 268:Generated_Source\PSoC4/SDCard_SPIM_SPI.c **** #else
 269:Generated_Source\PSoC4/SDCard_SPIM_SPI.c **** 
 270:Generated_Source\PSoC4/SDCard_SPIM_SPI.c ****     #if (SDCard_SPIM_SPI_MASTER_SCLK_PIN)
 271:Generated_Source\PSoC4/SDCard_SPIM_SPI.c ****         /* Set SCB SPI to drive output pin */
 272:Generated_Source\PSoC4/SDCard_SPIM_SPI.c ****         SDCard_SPIM_SET_HSIOM_SEL(SDCard_SPIM_SCLK_M_HSIOM_REG, SDCard_SPIM_SCLK_M_HSIOM_MASK,
 146              		.loc 1 272 0
 147 0004 094B     		ldr	r3, .L5
 148 0006 094A     		ldr	r2, .L5
 149 0008 1268     		ldr	r2, [r2]
 150 000a F021     		mov	r1, #240
 151 000c 0905     		lsl	r1, r1, #20
 152 000e 0A43     		orr	r2, r1
 153 0010 1A60     		str	r2, [r3]
 273:Generated_Source\PSoC4/SDCard_SPIM_SPI.c ****                                        SDCard_SPIM_SCLK_M_HSIOM_POS, SDCard_SPIM_SCLK_M_HSIOM_SEL_S
 274:Generated_Source\PSoC4/SDCard_SPIM_SPI.c ****     #endif /* (SDCard_SPIM_MISO_SDA_TX_PIN_PIN) */
 275:Generated_Source\PSoC4/SDCard_SPIM_SPI.c **** 
 276:Generated_Source\PSoC4/SDCard_SPIM_SPI.c ****     #if (SDCard_SPIM_SPI_MASTER_SS0_PIN)
 277:Generated_Source\PSoC4/SDCard_SPIM_SPI.c ****         /* Set SCB SPI to drive output pin */
 278:Generated_Source\PSoC4/SDCard_SPIM_SPI.c ****         SDCard_SPIM_SET_HSIOM_SEL(SDCard_SPIM_SS0_M_HSIOM_REG, SDCard_SPIM_SS0_M_HSIOM_MASK,
 154              		.loc 1 278 0
 155 0012 064B     		ldr	r3, .L5
 156 0014 054A     		ldr	r2, .L5
 157 0016 1268     		ldr	r2, [r2]
 158 0018 F021     		mov	r1, #240
 159 001a 0906     		lsl	r1, r1, #24
 160 001c 0A43     		orr	r2, r1
 161 001e 1A60     		str	r2, [r3]
 279:Generated_Source\PSoC4/SDCard_SPIM_SPI.c ****                                        SDCard_SPIM_SS0_M_HSIOM_POS, SDCard_SPIM_SS0_M_HSIOM_SEL_SPI
 280:Generated_Source\PSoC4/SDCard_SPIM_SPI.c ****     #endif /* (SDCard_SPIM_SPI_MASTER_SS0_PIN) */
 281:Generated_Source\PSoC4/SDCard_SPIM_SPI.c **** 
 282:Generated_Source\PSoC4/SDCard_SPIM_SPI.c ****     #if (SDCard_SPIM_SPI_MASTER_SS1_PIN)
 283:Generated_Source\PSoC4/SDCard_SPIM_SPI.c ****         /* Set SCB SPI to drive output pin */
 284:Generated_Source\PSoC4/SDCard_SPIM_SPI.c ****         SDCard_SPIM_SET_HSIOM_SEL(SDCard_SPIM_SS1_M_HSIOM_REG, SDCard_SPIM_SS1_M_HSIOM_MASK,
 285:Generated_Source\PSoC4/SDCard_SPIM_SPI.c ****                                        SDCard_SPIM_SS1_M_HSIOM_POS, SDCard_SPIM_SS1_M_HSIOM_SEL_SPI
 286:Generated_Source\PSoC4/SDCard_SPIM_SPI.c ****     #endif /* (SDCard_SPIM_SPI_MASTER_SS1_PIN) */
 287:Generated_Source\PSoC4/SDCard_SPIM_SPI.c **** 
 288:Generated_Source\PSoC4/SDCard_SPIM_SPI.c ****     #if (SDCard_SPIM_SPI_MASTER_SS2_PIN)
 289:Generated_Source\PSoC4/SDCard_SPIM_SPI.c ****         /* Set SCB SPI to drive output pin */
 290:Generated_Source\PSoC4/SDCard_SPIM_SPI.c ****         SDCard_SPIM_SET_HSIOM_SEL(SDCard_SPIM_SS2_M_HSIOM_REG, SDCard_SPIM_SS2_M_HSIOM_MASK,
 291:Generated_Source\PSoC4/SDCard_SPIM_SPI.c ****                                        SDCard_SPIM_SS2_M_HSIOM_POS, SDCard_SPIM_SS2_M_HSIOM_SEL_SPI
 292:Generated_Source\PSoC4/SDCard_SPIM_SPI.c ****     #endif /* (SDCard_SPIM_SPI_MASTER_SS2_PIN) */
 293:Generated_Source\PSoC4/SDCard_SPIM_SPI.c **** 
 294:Generated_Source\PSoC4/SDCard_SPIM_SPI.c ****     #if (SDCard_SPIM_SPI_MASTER_SS3_PIN)
 295:Generated_Source\PSoC4/SDCard_SPIM_SPI.c ****         /* Set SCB SPI to drive output pin */
ARM GAS  C:\Users\BREYAN~1\AppData\Local\Temp\ccFybxAI.s 			page 9


 296:Generated_Source\PSoC4/SDCard_SPIM_SPI.c ****         SDCard_SPIM_SET_HSIOM_SEL(SDCard_SPIM_SS3_M_HSIOM_REG, SDCard_SPIM_SS3_M_HSIOM_MASK,
 297:Generated_Source\PSoC4/SDCard_SPIM_SPI.c ****                                        SDCard_SPIM_SS3_M_HSIOM_POS, SDCard_SPIM_SS3_M_HSIOM_SEL_SPI
 298:Generated_Source\PSoC4/SDCard_SPIM_SPI.c ****     #endif /* (SDCard_SPIM_SPI_MASTER_SS3_PIN) */
 299:Generated_Source\PSoC4/SDCard_SPIM_SPI.c **** 
 300:Generated_Source\PSoC4/SDCard_SPIM_SPI.c **** #endif /* (SDCard_SPIM_SCB_MODE_UNCONFIG_CONST_CFG) */
 301:Generated_Source\PSoC4/SDCard_SPIM_SPI.c **** 
 302:Generated_Source\PSoC4/SDCard_SPIM_SPI.c ****     /* Restore TX interrupt sources. */
 303:Generated_Source\PSoC4/SDCard_SPIM_SPI.c ****     SDCard_SPIM_SetTxInterruptMode(SDCard_SPIM_IntrTxMask);
 162              		.loc 1 303 0
 163 0020 034B     		ldr	r3, .L5+4
 164 0022 044A     		ldr	r2, .L5+8
 165 0024 1288     		ldrh	r2, [r2]
 166 0026 1A60     		str	r2, [r3]
 304:Generated_Source\PSoC4/SDCard_SPIM_SPI.c **** }
 167              		.loc 1 304 0
 168 0028 BD46     		mov	sp, r7
 169              		@ sp needed
 170 002a 80BD     		pop	{r7, pc}
 171              	.L6:
 172              		.align	2
 173              	.L5:
 174 002c 00000140 		.word	1073807360
 175 0030 880F0740 		.word	1074204552
 176 0034 00000000 		.word	SDCard_SPIM_IntrTxMask
 177              		.cfi_endproc
 178              	.LFE1:
 179              		.size	SDCard_SPIM_SpiPostEnable, .-SDCard_SPIM_SpiPostEnable
 180              		.section	.text.SDCard_SPIM_SpiStop,"ax",%progbits
 181              		.align	2
 182              		.global	SDCard_SPIM_SpiStop
 183              		.code	16
 184              		.thumb_func
 185              		.type	SDCard_SPIM_SpiStop, %function
 186              	SDCard_SPIM_SpiStop:
 187              	.LFB2:
 305:Generated_Source\PSoC4/SDCard_SPIM_SPI.c **** 
 306:Generated_Source\PSoC4/SDCard_SPIM_SPI.c **** 
 307:Generated_Source\PSoC4/SDCard_SPIM_SPI.c **** /*******************************************************************************
 308:Generated_Source\PSoC4/SDCard_SPIM_SPI.c **** * Function Name: SDCard_SPIM_SpiStop
 309:Generated_Source\PSoC4/SDCard_SPIM_SPI.c **** ****************************************************************************//**
 310:Generated_Source\PSoC4/SDCard_SPIM_SPI.c **** *
 311:Generated_Source\PSoC4/SDCard_SPIM_SPI.c **** *  Changes the HSIOM settings for the SPI master output pins 
 312:Generated_Source\PSoC4/SDCard_SPIM_SPI.c **** *  (SCLK and/or SS0-SS3) to keep them inactive after the block is disabled. 
 313:Generated_Source\PSoC4/SDCard_SPIM_SPI.c **** *  The output pins are controlled by the GPIO data register.
 314:Generated_Source\PSoC4/SDCard_SPIM_SPI.c **** *
 315:Generated_Source\PSoC4/SDCard_SPIM_SPI.c **** *******************************************************************************/
 316:Generated_Source\PSoC4/SDCard_SPIM_SPI.c **** void SDCard_SPIM_SpiStop(void)
 317:Generated_Source\PSoC4/SDCard_SPIM_SPI.c **** {
 188              		.loc 1 317 0
 189              		.cfi_startproc
 190 0000 80B5     		push	{r7, lr}
 191              		.cfi_def_cfa_offset 8
 192              		.cfi_offset 7, -8
 193              		.cfi_offset 14, -4
 194 0002 00AF     		add	r7, sp, #0
 195              		.cfi_def_cfa_register 7
 318:Generated_Source\PSoC4/SDCard_SPIM_SPI.c **** #if(SDCard_SPIM_SCB_MODE_UNCONFIG_CONST_CFG)
ARM GAS  C:\Users\BREYAN~1\AppData\Local\Temp\ccFybxAI.s 			page 10


 319:Generated_Source\PSoC4/SDCard_SPIM_SPI.c **** 
 320:Generated_Source\PSoC4/SDCard_SPIM_SPI.c ****     if (SDCard_SPIM_CHECK_SPI_MASTER)
 321:Generated_Source\PSoC4/SDCard_SPIM_SPI.c ****     {
 322:Generated_Source\PSoC4/SDCard_SPIM_SPI.c ****     #if (SDCard_SPIM_SCLK_PIN)
 323:Generated_Source\PSoC4/SDCard_SPIM_SPI.c ****         /* Set output pin state after block is disabled */
 324:Generated_Source\PSoC4/SDCard_SPIM_SPI.c ****         SDCard_SPIM_spi_sclk_Write(SDCard_SPIM_GET_SPI_SCLK_INACTIVE);
 325:Generated_Source\PSoC4/SDCard_SPIM_SPI.c **** 
 326:Generated_Source\PSoC4/SDCard_SPIM_SPI.c ****         /* Set GPIO to drive output pin */
 327:Generated_Source\PSoC4/SDCard_SPIM_SPI.c ****         SDCard_SPIM_SET_HSIOM_SEL(SDCard_SPIM_SCLK_HSIOM_REG, SDCard_SPIM_SCLK_HSIOM_MASK,
 328:Generated_Source\PSoC4/SDCard_SPIM_SPI.c ****                                        SDCard_SPIM_SCLK_HSIOM_POS, SDCard_SPIM_SCLK_HSIOM_SEL_GPIO)
 329:Generated_Source\PSoC4/SDCard_SPIM_SPI.c ****     #endif /* (SDCard_SPIM_spi_sclk_PIN) */
 330:Generated_Source\PSoC4/SDCard_SPIM_SPI.c **** 
 331:Generated_Source\PSoC4/SDCard_SPIM_SPI.c ****     #if (SDCard_SPIM_SS0_PIN)
 332:Generated_Source\PSoC4/SDCard_SPIM_SPI.c ****         /* Set output pin state after block is disabled */
 333:Generated_Source\PSoC4/SDCard_SPIM_SPI.c ****         SDCard_SPIM_spi_ss0_Write(SDCard_SPIM_GET_SPI_SS0_INACTIVE);
 334:Generated_Source\PSoC4/SDCard_SPIM_SPI.c **** 
 335:Generated_Source\PSoC4/SDCard_SPIM_SPI.c ****         /* Set GPIO to drive output pin */
 336:Generated_Source\PSoC4/SDCard_SPIM_SPI.c ****         SDCard_SPIM_SET_HSIOM_SEL(SDCard_SPIM_SS0_HSIOM_REG, SDCard_SPIM_SS0_HSIOM_MASK,
 337:Generated_Source\PSoC4/SDCard_SPIM_SPI.c ****                                        SDCard_SPIM_SS0_HSIOM_POS, SDCard_SPIM_SS0_HSIOM_SEL_GPIO);
 338:Generated_Source\PSoC4/SDCard_SPIM_SPI.c ****     #endif /* (SDCard_SPIM_spi_ss0_PIN) */
 339:Generated_Source\PSoC4/SDCard_SPIM_SPI.c **** 
 340:Generated_Source\PSoC4/SDCard_SPIM_SPI.c ****     #if (SDCard_SPIM_SS1_PIN)
 341:Generated_Source\PSoC4/SDCard_SPIM_SPI.c ****         /* Set output pin state after block is disabled */
 342:Generated_Source\PSoC4/SDCard_SPIM_SPI.c ****         SDCard_SPIM_spi_ss1_Write(SDCard_SPIM_GET_SPI_SS1_INACTIVE);
 343:Generated_Source\PSoC4/SDCard_SPIM_SPI.c **** 
 344:Generated_Source\PSoC4/SDCard_SPIM_SPI.c ****         /* Set GPIO to drive output pin */
 345:Generated_Source\PSoC4/SDCard_SPIM_SPI.c ****         SDCard_SPIM_SET_HSIOM_SEL(SDCard_SPIM_SS1_HSIOM_REG, SDCard_SPIM_SS1_HSIOM_MASK,
 346:Generated_Source\PSoC4/SDCard_SPIM_SPI.c ****                                        SDCard_SPIM_SS1_HSIOM_POS, SDCard_SPIM_SS1_HSIOM_SEL_GPIO);
 347:Generated_Source\PSoC4/SDCard_SPIM_SPI.c ****     #endif /* (SDCard_SPIM_SS1_PIN) */
 348:Generated_Source\PSoC4/SDCard_SPIM_SPI.c **** 
 349:Generated_Source\PSoC4/SDCard_SPIM_SPI.c ****     #if (SDCard_SPIM_SS2_PIN)
 350:Generated_Source\PSoC4/SDCard_SPIM_SPI.c ****         /* Set output pin state after block is disabled */
 351:Generated_Source\PSoC4/SDCard_SPIM_SPI.c ****         SDCard_SPIM_spi_ss2_Write(SDCard_SPIM_GET_SPI_SS2_INACTIVE);
 352:Generated_Source\PSoC4/SDCard_SPIM_SPI.c **** 
 353:Generated_Source\PSoC4/SDCard_SPIM_SPI.c ****         /* Set GPIO to drive output pin */
 354:Generated_Source\PSoC4/SDCard_SPIM_SPI.c ****         SDCard_SPIM_SET_HSIOM_SEL(SDCard_SPIM_SS2_HSIOM_REG, SDCard_SPIM_SS2_HSIOM_MASK,
 355:Generated_Source\PSoC4/SDCard_SPIM_SPI.c ****                                        SDCard_SPIM_SS2_HSIOM_POS, SDCard_SPIM_SS2_HSIOM_SEL_GPIO);
 356:Generated_Source\PSoC4/SDCard_SPIM_SPI.c ****     #endif /* (SDCard_SPIM_SS2_PIN) */
 357:Generated_Source\PSoC4/SDCard_SPIM_SPI.c **** 
 358:Generated_Source\PSoC4/SDCard_SPIM_SPI.c ****     #if (SDCard_SPIM_SS3_PIN)
 359:Generated_Source\PSoC4/SDCard_SPIM_SPI.c ****         /* Set output pin state after block is disabled */
 360:Generated_Source\PSoC4/SDCard_SPIM_SPI.c ****         SDCard_SPIM_spi_ss3_Write(SDCard_SPIM_GET_SPI_SS3_INACTIVE);
 361:Generated_Source\PSoC4/SDCard_SPIM_SPI.c **** 
 362:Generated_Source\PSoC4/SDCard_SPIM_SPI.c ****         /* Set GPIO to drive output pin */
 363:Generated_Source\PSoC4/SDCard_SPIM_SPI.c ****         SDCard_SPIM_SET_HSIOM_SEL(SDCard_SPIM_SS3_HSIOM_REG, SDCard_SPIM_SS3_HSIOM_MASK,
 364:Generated_Source\PSoC4/SDCard_SPIM_SPI.c ****                                        SDCard_SPIM_SS3_HSIOM_POS, SDCard_SPIM_SS3_HSIOM_SEL_GPIO);
 365:Generated_Source\PSoC4/SDCard_SPIM_SPI.c ****     #endif /* (SDCard_SPIM_SS3_PIN) */
 366:Generated_Source\PSoC4/SDCard_SPIM_SPI.c ****     
 367:Generated_Source\PSoC4/SDCard_SPIM_SPI.c ****         /* Store TX interrupt sources (exclude level triggered) for master. */
 368:Generated_Source\PSoC4/SDCard_SPIM_SPI.c ****         SDCard_SPIM_IntrTxMask = LO16(SDCard_SPIM_GetTxInterruptMode() & SDCard_SPIM_INTR_SPIM_TX_R
 369:Generated_Source\PSoC4/SDCard_SPIM_SPI.c ****     }
 370:Generated_Source\PSoC4/SDCard_SPIM_SPI.c ****     else
 371:Generated_Source\PSoC4/SDCard_SPIM_SPI.c ****     {
 372:Generated_Source\PSoC4/SDCard_SPIM_SPI.c ****         /* Store TX interrupt sources (exclude level triggered) for slave. */
 373:Generated_Source\PSoC4/SDCard_SPIM_SPI.c ****         SDCard_SPIM_IntrTxMask = LO16(SDCard_SPIM_GetTxInterruptMode() & SDCard_SPIM_INTR_SPIS_TX_R
 374:Generated_Source\PSoC4/SDCard_SPIM_SPI.c ****     }
 375:Generated_Source\PSoC4/SDCard_SPIM_SPI.c **** 
ARM GAS  C:\Users\BREYAN~1\AppData\Local\Temp\ccFybxAI.s 			page 11


 376:Generated_Source\PSoC4/SDCard_SPIM_SPI.c **** #else
 377:Generated_Source\PSoC4/SDCard_SPIM_SPI.c **** 
 378:Generated_Source\PSoC4/SDCard_SPIM_SPI.c **** #if (SDCard_SPIM_SPI_MASTER_SCLK_PIN)
 379:Generated_Source\PSoC4/SDCard_SPIM_SPI.c ****     /* Set output pin state after block is disabled */
 380:Generated_Source\PSoC4/SDCard_SPIM_SPI.c ****     SDCard_SPIM_sclk_m_Write(SDCard_SPIM_GET_SPI_SCLK_INACTIVE);
 196              		.loc 1 380 0
 197 0004 114B     		ldr	r3, .L8
 198 0006 1B68     		ldr	r3, [r3]
 199 0008 0822     		mov	r2, #8
 200 000a 1340     		and	r3, r2
 201 000c 5A1E     		sub	r2, r3, #1
 202 000e 9341     		sbc	r3, r3, r2
 203 0010 DBB2     		uxtb	r3, r3
 204 0012 181C     		mov	r0, r3
 205 0014 FFF7FEFF 		bl	SDCard_SPIM_sclk_m_Write
 381:Generated_Source\PSoC4/SDCard_SPIM_SPI.c **** 
 382:Generated_Source\PSoC4/SDCard_SPIM_SPI.c ****     /* Set GPIO to drive output pin */
 383:Generated_Source\PSoC4/SDCard_SPIM_SPI.c ****     SDCard_SPIM_SET_HSIOM_SEL(SDCard_SPIM_SCLK_M_HSIOM_REG, SDCard_SPIM_SCLK_M_HSIOM_MASK,
 206              		.loc 1 383 0
 207 0018 0D4B     		ldr	r3, .L8+4
 208 001a 0D4A     		ldr	r2, .L8+4
 209 001c 1268     		ldr	r2, [r2]
 210 001e 0D49     		ldr	r1, .L8+8
 211 0020 0A40     		and	r2, r1
 212 0022 1A60     		str	r2, [r3]
 384:Generated_Source\PSoC4/SDCard_SPIM_SPI.c ****                                    SDCard_SPIM_SCLK_M_HSIOM_POS, SDCard_SPIM_SCLK_M_HSIOM_SEL_GPIO)
 385:Generated_Source\PSoC4/SDCard_SPIM_SPI.c **** #endif /* (SDCard_SPIM_MISO_SDA_TX_PIN_PIN) */
 386:Generated_Source\PSoC4/SDCard_SPIM_SPI.c **** 
 387:Generated_Source\PSoC4/SDCard_SPIM_SPI.c **** #if (SDCard_SPIM_SPI_MASTER_SS0_PIN)
 388:Generated_Source\PSoC4/SDCard_SPIM_SPI.c ****     /* Set output pin state after block is disabled */
 389:Generated_Source\PSoC4/SDCard_SPIM_SPI.c ****     SDCard_SPIM_ss0_m_Write(SDCard_SPIM_GET_SPI_SS0_INACTIVE);
 213              		.loc 1 389 0
 214 0024 0120     		mov	r0, #1
 215 0026 FFF7FEFF 		bl	SDCard_SPIM_ss0_m_Write
 390:Generated_Source\PSoC4/SDCard_SPIM_SPI.c **** 
 391:Generated_Source\PSoC4/SDCard_SPIM_SPI.c ****     /* Set GPIO to drive output pin */
 392:Generated_Source\PSoC4/SDCard_SPIM_SPI.c ****     SDCard_SPIM_SET_HSIOM_SEL(SDCard_SPIM_SS0_M_HSIOM_REG, SDCard_SPIM_SS0_M_HSIOM_MASK,
 216              		.loc 1 392 0
 217 002a 094B     		ldr	r3, .L8+4
 218 002c 084A     		ldr	r2, .L8+4
 219 002e 1268     		ldr	r2, [r2]
 220 0030 1201     		lsl	r2, r2, #4
 221 0032 1209     		lsr	r2, r2, #4
 222 0034 1A60     		str	r2, [r3]
 393:Generated_Source\PSoC4/SDCard_SPIM_SPI.c ****                                    SDCard_SPIM_SS0_M_HSIOM_POS, SDCard_SPIM_SS0_M_HSIOM_SEL_GPIO);
 394:Generated_Source\PSoC4/SDCard_SPIM_SPI.c **** #endif /* (SDCard_SPIM_SPI_MASTER_SS0_PIN) */
 395:Generated_Source\PSoC4/SDCard_SPIM_SPI.c **** 
 396:Generated_Source\PSoC4/SDCard_SPIM_SPI.c **** #if (SDCard_SPIM_SPI_MASTER_SS1_PIN)
 397:Generated_Source\PSoC4/SDCard_SPIM_SPI.c ****     /* Set output pin state after block is disabled */
 398:Generated_Source\PSoC4/SDCard_SPIM_SPI.c ****     SDCard_SPIM_ss1_m_Write(SDCard_SPIM_GET_SPI_SS1_INACTIVE);
 399:Generated_Source\PSoC4/SDCard_SPIM_SPI.c **** 
 400:Generated_Source\PSoC4/SDCard_SPIM_SPI.c ****     /* Set GPIO to drive output pin */
 401:Generated_Source\PSoC4/SDCard_SPIM_SPI.c ****     SDCard_SPIM_SET_HSIOM_SEL(SDCard_SPIM_SS1_M_HSIOM_REG, SDCard_SPIM_SS1_M_HSIOM_MASK,
 402:Generated_Source\PSoC4/SDCard_SPIM_SPI.c ****                                    SDCard_SPIM_SS1_M_HSIOM_POS, SDCard_SPIM_SS1_M_HSIOM_SEL_GPIO);
 403:Generated_Source\PSoC4/SDCard_SPIM_SPI.c **** #endif /* (SDCard_SPIM_SPI_MASTER_SS1_PIN) */
 404:Generated_Source\PSoC4/SDCard_SPIM_SPI.c **** 
 405:Generated_Source\PSoC4/SDCard_SPIM_SPI.c **** #if (SDCard_SPIM_SPI_MASTER_SS2_PIN)
ARM GAS  C:\Users\BREYAN~1\AppData\Local\Temp\ccFybxAI.s 			page 12


 406:Generated_Source\PSoC4/SDCard_SPIM_SPI.c ****     /* Set output pin state after block is disabled */
 407:Generated_Source\PSoC4/SDCard_SPIM_SPI.c ****     SDCard_SPIM_ss2_m_Write(SDCard_SPIM_GET_SPI_SS2_INACTIVE);
 408:Generated_Source\PSoC4/SDCard_SPIM_SPI.c **** 
 409:Generated_Source\PSoC4/SDCard_SPIM_SPI.c ****     /* Set GPIO to drive output pin */
 410:Generated_Source\PSoC4/SDCard_SPIM_SPI.c ****     SDCard_SPIM_SET_HSIOM_SEL(SDCard_SPIM_SS2_M_HSIOM_REG, SDCard_SPIM_SS2_M_HSIOM_MASK,
 411:Generated_Source\PSoC4/SDCard_SPIM_SPI.c ****                                    SDCard_SPIM_SS2_M_HSIOM_POS, SDCard_SPIM_SS2_M_HSIOM_SEL_GPIO);
 412:Generated_Source\PSoC4/SDCard_SPIM_SPI.c **** #endif /* (SDCard_SPIM_SPI_MASTER_SS2_PIN) */
 413:Generated_Source\PSoC4/SDCard_SPIM_SPI.c **** 
 414:Generated_Source\PSoC4/SDCard_SPIM_SPI.c **** #if (SDCard_SPIM_SPI_MASTER_SS3_PIN)
 415:Generated_Source\PSoC4/SDCard_SPIM_SPI.c ****     /* Set output pin state after block is disabled */
 416:Generated_Source\PSoC4/SDCard_SPIM_SPI.c ****     SDCard_SPIM_ss3_m_Write(SDCard_SPIM_GET_SPI_SS3_INACTIVE);
 417:Generated_Source\PSoC4/SDCard_SPIM_SPI.c **** 
 418:Generated_Source\PSoC4/SDCard_SPIM_SPI.c ****     /* Set GPIO to drive output pin */
 419:Generated_Source\PSoC4/SDCard_SPIM_SPI.c ****     SDCard_SPIM_SET_HSIOM_SEL(SDCard_SPIM_SS3_M_HSIOM_REG, SDCard_SPIM_SS3_M_HSIOM_MASK,
 420:Generated_Source\PSoC4/SDCard_SPIM_SPI.c ****                                    SDCard_SPIM_SS3_M_HSIOM_POS, SDCard_SPIM_SS3_M_HSIOM_SEL_GPIO);
 421:Generated_Source\PSoC4/SDCard_SPIM_SPI.c **** #endif /* (SDCard_SPIM_SPI_MASTER_SS3_PIN) */
 422:Generated_Source\PSoC4/SDCard_SPIM_SPI.c **** 
 423:Generated_Source\PSoC4/SDCard_SPIM_SPI.c ****     #if (SDCard_SPIM_SPI_MASTER_CONST)
 424:Generated_Source\PSoC4/SDCard_SPIM_SPI.c ****         /* Store TX interrupt sources (exclude level triggered). */
 425:Generated_Source\PSoC4/SDCard_SPIM_SPI.c ****         SDCard_SPIM_IntrTxMask = LO16(SDCard_SPIM_GetTxInterruptMode() & SDCard_SPIM_INTR_SPIM_TX_R
 223              		.loc 1 425 0
 224 0036 084B     		ldr	r3, .L8+12
 225 0038 1B68     		ldr	r3, [r3]
 226 003a 9BB2     		uxth	r3, r3
 227 003c 2022     		mov	r2, #32
 228 003e 1340     		and	r3, r2
 229 0040 9AB2     		uxth	r2, r3
 230 0042 064B     		ldr	r3, .L8+16
 231 0044 1A80     		strh	r2, [r3]
 426:Generated_Source\PSoC4/SDCard_SPIM_SPI.c ****     #else
 427:Generated_Source\PSoC4/SDCard_SPIM_SPI.c ****         /* Store TX interrupt sources (exclude level triggered). */
 428:Generated_Source\PSoC4/SDCard_SPIM_SPI.c ****         SDCard_SPIM_IntrTxMask = LO16(SDCard_SPIM_GetTxInterruptMode() & SDCard_SPIM_INTR_SPIS_TX_R
 429:Generated_Source\PSoC4/SDCard_SPIM_SPI.c ****     #endif /* (SDCard_SPIM_SPI_MASTER_CONST) */
 430:Generated_Source\PSoC4/SDCard_SPIM_SPI.c **** 
 431:Generated_Source\PSoC4/SDCard_SPIM_SPI.c **** #endif /* (SDCard_SPIM_SCB_MODE_UNCONFIG_CONST_CFG) */
 432:Generated_Source\PSoC4/SDCard_SPIM_SPI.c **** }
 232              		.loc 1 432 0
 233 0046 BD46     		mov	sp, r7
 234              		@ sp needed
 235 0048 80BD     		pop	{r7, pc}
 236              	.L9:
 237 004a C046     		.align	2
 238              	.L8:
 239 004c 20000740 		.word	1074200608
 240 0050 00000140 		.word	1073807360
 241 0054 FFFFFFF0 		.word	-251658241
 242 0058 880F0740 		.word	1074204552
 243 005c 00000000 		.word	SDCard_SPIM_IntrTxMask
 244              		.cfi_endproc
 245              	.LFE2:
 246              		.size	SDCard_SPIM_SpiStop, .-SDCard_SPIM_SpiStop
 247              		.section	.text.SDCard_SPIM_SpiSetActiveSlaveSelect,"ax",%progbits
 248              		.align	2
 249              		.global	SDCard_SPIM_SpiSetActiveSlaveSelect
 250              		.code	16
 251              		.thumb_func
 252              		.type	SDCard_SPIM_SpiSetActiveSlaveSelect, %function
ARM GAS  C:\Users\BREYAN~1\AppData\Local\Temp\ccFybxAI.s 			page 13


 253              	SDCard_SPIM_SpiSetActiveSlaveSelect:
 254              	.LFB3:
 433:Generated_Source\PSoC4/SDCard_SPIM_SPI.c **** 
 434:Generated_Source\PSoC4/SDCard_SPIM_SPI.c **** 
 435:Generated_Source\PSoC4/SDCard_SPIM_SPI.c **** #if (SDCard_SPIM_SPI_MASTER_CONST)
 436:Generated_Source\PSoC4/SDCard_SPIM_SPI.c ****     /*******************************************************************************
 437:Generated_Source\PSoC4/SDCard_SPIM_SPI.c ****     * Function Name: SDCard_SPIM_SetActiveSlaveSelect
 438:Generated_Source\PSoC4/SDCard_SPIM_SPI.c ****     ****************************************************************************//**
 439:Generated_Source\PSoC4/SDCard_SPIM_SPI.c ****     *
 440:Generated_Source\PSoC4/SDCard_SPIM_SPI.c ****     *  Selects one of the four slave select lines to be active during the transfer.
 441:Generated_Source\PSoC4/SDCard_SPIM_SPI.c ****     *  After initialization the active slave select line is 0.
 442:Generated_Source\PSoC4/SDCard_SPIM_SPI.c ****     *  The component should be in one of the following states to change the active
 443:Generated_Source\PSoC4/SDCard_SPIM_SPI.c ****     *  slave select signal source correctly:
 444:Generated_Source\PSoC4/SDCard_SPIM_SPI.c ****     *   - The component is disabled.
 445:Generated_Source\PSoC4/SDCard_SPIM_SPI.c ****     *   - The component has completed transfer (TX FIFO is empty and the
 446:Generated_Source\PSoC4/SDCard_SPIM_SPI.c ****     *     SCB_INTR_MASTER_SPI_DONE status is set).
 447:Generated_Source\PSoC4/SDCard_SPIM_SPI.c ****     *
 448:Generated_Source\PSoC4/SDCard_SPIM_SPI.c ****     *  This function does not check that these conditions are met.
 449:Generated_Source\PSoC4/SDCard_SPIM_SPI.c ****     *  This function is only applicable to SPI Master mode of operation.
 450:Generated_Source\PSoC4/SDCard_SPIM_SPI.c ****     *
 451:Generated_Source\PSoC4/SDCard_SPIM_SPI.c ****     *  \param slaveSelect: slave select line which will be active while the following
 452:Generated_Source\PSoC4/SDCard_SPIM_SPI.c ****     *   transfer.
 453:Generated_Source\PSoC4/SDCard_SPIM_SPI.c ****     *   - SDCard_SPIM_SPI_SLAVE_SELECT0 - Slave select 0.
 454:Generated_Source\PSoC4/SDCard_SPIM_SPI.c ****     *   - SDCard_SPIM_SPI_SLAVE_SELECT1 - Slave select 1.
 455:Generated_Source\PSoC4/SDCard_SPIM_SPI.c ****     *   - SDCard_SPIM_SPI_SLAVE_SELECT2 - Slave select 2.
 456:Generated_Source\PSoC4/SDCard_SPIM_SPI.c ****     *   - SDCard_SPIM_SPI_SLAVE_SELECT3 - Slave select 3.
 457:Generated_Source\PSoC4/SDCard_SPIM_SPI.c ****     *
 458:Generated_Source\PSoC4/SDCard_SPIM_SPI.c ****     *******************************************************************************/
 459:Generated_Source\PSoC4/SDCard_SPIM_SPI.c ****     void SDCard_SPIM_SpiSetActiveSlaveSelect(uint32 slaveSelect)
 460:Generated_Source\PSoC4/SDCard_SPIM_SPI.c ****     {
 255              		.loc 1 460 0
 256              		.cfi_startproc
 257 0000 80B5     		push	{r7, lr}
 258              		.cfi_def_cfa_offset 8
 259              		.cfi_offset 7, -8
 260              		.cfi_offset 14, -4
 261 0002 84B0     		sub	sp, sp, #16
 262              		.cfi_def_cfa_offset 24
 263 0004 00AF     		add	r7, sp, #0
 264              		.cfi_def_cfa_register 7
 265 0006 7860     		str	r0, [r7, #4]
 461:Generated_Source\PSoC4/SDCard_SPIM_SPI.c ****         uint32 spiCtrl;
 462:Generated_Source\PSoC4/SDCard_SPIM_SPI.c **** 
 463:Generated_Source\PSoC4/SDCard_SPIM_SPI.c ****         spiCtrl = SDCard_SPIM_SPI_CTRL_REG;
 266              		.loc 1 463 0
 267 0008 0A4B     		ldr	r3, .L11
 268 000a 1B68     		ldr	r3, [r3]
 269 000c FB60     		str	r3, [r7, #12]
 464:Generated_Source\PSoC4/SDCard_SPIM_SPI.c **** 
 465:Generated_Source\PSoC4/SDCard_SPIM_SPI.c ****         spiCtrl &= (uint32) ~SDCard_SPIM_SPI_CTRL_SLAVE_SELECT_MASK;
 270              		.loc 1 465 0
 271 000e FB68     		ldr	r3, [r7, #12]
 272 0010 094A     		ldr	r2, .L11+4
 273 0012 1340     		and	r3, r2
 274 0014 FB60     		str	r3, [r7, #12]
 466:Generated_Source\PSoC4/SDCard_SPIM_SPI.c ****         spiCtrl |= (uint32)  SDCard_SPIM_GET_SPI_CTRL_SS(slaveSelect);
 275              		.loc 1 466 0
ARM GAS  C:\Users\BREYAN~1\AppData\Local\Temp\ccFybxAI.s 			page 14


 276 0016 7B68     		ldr	r3, [r7, #4]
 277 0018 9A06     		lsl	r2, r3, #26
 278 001a C023     		mov	r3, #192
 279 001c 1B05     		lsl	r3, r3, #20
 280 001e 1340     		and	r3, r2
 281 0020 FA68     		ldr	r2, [r7, #12]
 282 0022 1343     		orr	r3, r2
 283 0024 FB60     		str	r3, [r7, #12]
 467:Generated_Source\PSoC4/SDCard_SPIM_SPI.c **** 
 468:Generated_Source\PSoC4/SDCard_SPIM_SPI.c ****         SDCard_SPIM_SPI_CTRL_REG = spiCtrl;
 284              		.loc 1 468 0
 285 0026 034B     		ldr	r3, .L11
 286 0028 FA68     		ldr	r2, [r7, #12]
 287 002a 1A60     		str	r2, [r3]
 469:Generated_Source\PSoC4/SDCard_SPIM_SPI.c ****     }
 288              		.loc 1 469 0
 289 002c BD46     		mov	sp, r7
 290 002e 04B0     		add	sp, sp, #16
 291              		@ sp needed
 292 0030 80BD     		pop	{r7, pc}
 293              	.L12:
 294 0032 C046     		.align	2
 295              	.L11:
 296 0034 20000740 		.word	1074200608
 297 0038 FFFFFFF3 		.word	-201326593
 298              		.cfi_endproc
 299              	.LFE3:
 300              		.size	SDCard_SPIM_SpiSetActiveSlaveSelect, .-SDCard_SPIM_SpiSetActiveSlaveSelect
 301              		.text
 302              	.Letext0:
 303              		.file 2 "Generated_Source\\PSoC4/cytypes.h"
 304              		.file 3 "Generated_Source\\PSoC4\\SDCard_SPIM_PVT.h"