ARM GAS  C:\Users\Rafael\AppData\Local\Temp\cci6BCat.s 			page 1


   1              		.syntax unified
   2              		.cpu cortex-m0
   3              		.fpu softvfp
   4              		.eabi_attribute 20, 1
   5              		.eabi_attribute 21, 1
   6              		.eabi_attribute 23, 3
   7              		.eabi_attribute 24, 1
   8              		.eabi_attribute 25, 1
   9              		.eabi_attribute 26, 1
  10              		.eabi_attribute 30, 6
  11              		.eabi_attribute 34, 0
  12              		.eabi_attribute 18, 4
  13              		.thumb
  14              		.syntax unified
  15              		.file	"SDCard_SPI.c"
  16              		.text
  17              	.Ltext0:
  18              		.cfi_sections	.debug_frame
  19              		.section	.text.SDCard_InitHdwr,"ax",%progbits
  20              		.align	2
  21              		.global	SDCard_InitHdwr
  22              		.code	16
  23              		.thumb_func
  24              		.type	SDCard_InitHdwr, %function
  25              	SDCard_InitHdwr:
  26              	.LFB34:
  27              		.file 1 "Generated_Source\\PSoC4\\SDCard_SPI.c"
   1:Generated_Source\PSoC4/SDCard_SPI.c **** /****************************************************************************
   2:Generated_Source\PSoC4/SDCard_SPI.c **** *****************************************************************************
   3:Generated_Source\PSoC4/SDCard_SPI.c ****   FILENAME: SDCard_SPI.c
   4:Generated_Source\PSoC4/SDCard_SPI.c ****   Version 0.0
   5:Generated_Source\PSoC4/SDCard_SPI.c ****   
   6:Generated_Source\PSoC4/SDCard_SPI.c **** 
   7:Generated_Source\PSoC4/SDCard_SPI.c ****   DESCRIPTION: SDCard User Module software implementation file
   8:Generated_Source\PSoC4/SDCard_SPI.c ****                for the low level SPI hardware.
   9:Generated_Source\PSoC4/SDCard_SPI.c **** 
  10:Generated_Source\PSoC4/SDCard_SPI.c ****   NOTE: User Module APIs conform to the fastcall16 convention for marshalling
  11:Generated_Source\PSoC4/SDCard_SPI.c ****         arguments and observe the associated "Registers are volatile" policy.
  12:Generated_Source\PSoC4/SDCard_SPI.c ****         This means it is the caller's responsibility to preserve any values
  13:Generated_Source\PSoC4/SDCard_SPI.c ****         in the X and A registers that are still needed after the API functions
  14:Generated_Source\PSoC4/SDCard_SPI.c ****         returns. For Large Memory Model devices it is also the caller's 
  15:Generated_Source\PSoC4/SDCard_SPI.c ****         responsibility to perserve any value in the CUR_PP, IDX_PP, MVR_PP and 
  16:Generated_Source\PSoC4/SDCard_SPI.c ****         MVW_PP registers. Even though some of these registers may not be modified
  17:Generated_Source\PSoC4/SDCard_SPI.c ****         now, there is no guarantee that will remain the case in future releases.
  18:Generated_Source\PSoC4/SDCard_SPI.c **** -----------------------------------------------------------------------------
  19:Generated_Source\PSoC4/SDCard_SPI.c ****   Copyright (c) Cypress Semiconductor 2013-14. All Rights Reserved.
  20:Generated_Source\PSoC4/SDCard_SPI.c **** *****************************************************************************
  21:Generated_Source\PSoC4/SDCard_SPI.c **** *****************************************************************************
  22:Generated_Source\PSoC4/SDCard_SPI.c **** */
  23:Generated_Source\PSoC4/SDCard_SPI.c **** 
  24:Generated_Source\PSoC4/SDCard_SPI.c **** #include "device.h"
  25:Generated_Source\PSoC4/SDCard_SPI.c **** #include "SDCard_SPI.h"
  26:Generated_Source\PSoC4/SDCard_SPI.c **** 
  27:Generated_Source\PSoC4/SDCard_SPI.c **** /*
  28:Generated_Source\PSoC4/SDCard_SPI.c **** ;-----------------------------------------------------------------------------
  29:Generated_Source\PSoC4/SDCard_SPI.c **** ;  FUNCTION NAME: SDCard_InitHdwr
  30:Generated_Source\PSoC4/SDCard_SPI.c **** ;
ARM GAS  C:\Users\Rafael\AppData\Local\Temp\cci6BCat.s 			page 2


  31:Generated_Source\PSoC4/SDCard_SPI.c **** ;  DESCRIPTION:
  32:Generated_Source\PSoC4/SDCard_SPI.c **** ;     Sets the start bit, SPI mode, and LSB/MSB first configuration of the SPIM
  33:Generated_Source\PSoC4/SDCard_SPI.c **** ;     user module.
  34:Generated_Source\PSoC4/SDCard_SPI.c **** ;
  35:Generated_Source\PSoC4/SDCard_SPI.c **** ;     Transmission will begin transmitting when a byte is written into the TX buffer
  36:Generated_Source\PSoC4/SDCard_SPI.c **** ;     using the SDCard_SendTxData function.
  37:Generated_Source\PSoC4/SDCard_SPI.c **** ;
  38:Generated_Source\PSoC4/SDCard_SPI.c **** ;-----------------------------------------------------------------------------
  39:Generated_Source\PSoC4/SDCard_SPI.c **** ;
  40:Generated_Source\PSoC4/SDCard_SPI.c **** ;  ARGUMENTS:
  41:Generated_Source\PSoC4/SDCard_SPI.c **** ;     uint8 bConfiguration - Consists of SPI Mode and LSB/MSB first bit.
  42:Generated_Source\PSoC4/SDCard_SPI.c **** ;           Use defined masks - masks can be OR'd together.
  43:Generated_Source\PSoC4/SDCard_SPI.c **** ;     PASSED in Accumulator.
  44:Generated_Source\PSoC4/SDCard_SPI.c **** ;
  45:Generated_Source\PSoC4/SDCard_SPI.c **** ;  RETURNS:  none
  46:Generated_Source\PSoC4/SDCard_SPI.c **** ;
  47:Generated_Source\PSoC4/SDCard_SPI.c **** ;  SIDE EFFECTS: 
  48:Generated_Source\PSoC4/SDCard_SPI.c **** ;    The A and X registers may be modified by this or future implementations
  49:Generated_Source\PSoC4/SDCard_SPI.c **** ;    of this function.  The same is true for all RAM page pointer registers in
  50:Generated_Source\PSoC4/SDCard_SPI.c **** ;    the Large Memory Model.  When necessary, it is the calling function's
  51:Generated_Source\PSoC4/SDCard_SPI.c **** ;    responsibility to perserve their values across calls to fastcall16 
  52:Generated_Source\PSoC4/SDCard_SPI.c **** ;    functions.
  53:Generated_Source\PSoC4/SDCard_SPI.c **** ;
  54:Generated_Source\PSoC4/SDCard_SPI.c **** ;  THEORY of OPERATION or PROCEDURE:
  55:Generated_Source\PSoC4/SDCard_SPI.c **** ;     1) Set all Slave Select outputs high
  56:Generated_Source\PSoC4/SDCard_SPI.c **** ;     2) Set the specified SPI configuration bits in the Control register.
  57:Generated_Source\PSoC4/SDCard_SPI.c **** ;
  58:Generated_Source\PSoC4/SDCard_SPI.c **** */
  59:Generated_Source\PSoC4/SDCard_SPI.c **** void  SDCard_InitHdwr(uint8 bConfiguration)
  60:Generated_Source\PSoC4/SDCard_SPI.c **** {
  28              		.loc 1 60 0
  29              		.cfi_startproc
  30              		@ args = 0, pretend = 0, frame = 8
  31              		@ frame_needed = 1, uses_anonymous_args = 0
  32 0000 80B5     		push	{r7, lr}
  33              		.cfi_def_cfa_offset 8
  34              		.cfi_offset 7, -8
  35              		.cfi_offset 14, -4
  36 0002 82B0     		sub	sp, sp, #8
  37              		.cfi_def_cfa_offset 16
  38 0004 00AF     		add	r7, sp, #0
  39              		.cfi_def_cfa_register 7
  40 0006 0200     		movs	r2, r0
  41 0008 FB1D     		adds	r3, r7, #7
  42 000a 1A70     		strb	r2, [r3]
  61:Generated_Source\PSoC4/SDCard_SPI.c **** 	SDCard_SD_CS_Write(0);
  43              		.loc 1 61 0
  44 000c 0020     		movs	r0, #0
  45 000e FFF7FEFF 		bl	SDCard_SD_CS_Write
  62:Generated_Source\PSoC4/SDCard_SPI.c **** 	SDCard_SD_Clock_SetDividerRegister(0, 1);
  46              		.loc 1 62 0
  47 0012 0021     		movs	r1, #0
  48 0014 0020     		movs	r0, #0
  49 0016 FFF7FEFF 		bl	SDCard_SD_Clock_SetFractionalDividerRegister
  63:Generated_Source\PSoC4/SDCard_SPI.c **** 	SDCard_SPIM_Start();
  50              		.loc 1 63 0
  51 001a FFF7FEFF 		bl	SDCard_SPIM_Start
ARM GAS  C:\Users\Rafael\AppData\Local\Temp\cci6BCat.s 			page 3


  64:Generated_Source\PSoC4/SDCard_SPI.c **** 	SDCard_SPIM_SpiUartClearTxBuffer();
  52              		.loc 1 64 0
  53 001e FFF7FEFF 		bl	SDCard_SPIM_SpiUartClearTxBuffer
  65:Generated_Source\PSoC4/SDCard_SPI.c **** 	SDCard_SPIM_SpiUartClearRxBuffer();
  54              		.loc 1 65 0
  55 0022 FFF7FEFF 		bl	SDCard_SPIM_SpiUartClearRxBuffer
  66:Generated_Source\PSoC4/SDCard_SPI.c **** }
  56              		.loc 1 66 0
  57 0026 C046     		nop
  58 0028 BD46     		mov	sp, r7
  59 002a 02B0     		add	sp, sp, #8
  60              		@ sp needed
  61 002c 80BD     		pop	{r7, pc}
  62              		.cfi_endproc
  63              	.LFE34:
  64              		.size	SDCard_InitHdwr, .-SDCard_InitHdwr
  65 002e C046     		.section	.text.SDCard_UnInitHdwr,"ax",%progbits
  66              		.align	2
  67              		.global	SDCard_UnInitHdwr
  68              		.code	16
  69              		.thumb_func
  70              		.type	SDCard_UnInitHdwr, %function
  71              	SDCard_UnInitHdwr:
  72              	.LFB35:
  67:Generated_Source\PSoC4/SDCard_SPI.c **** 
  68:Generated_Source\PSoC4/SDCard_SPI.c **** /*
  69:Generated_Source\PSoC4/SDCard_SPI.c **** ;-----------------------------------------------------------------------------
  70:Generated_Source\PSoC4/SDCard_SPI.c **** ;  FUNCTION NAME: SDCard_Stop
  71:Generated_Source\PSoC4/SDCard_SPI.c **** ;
  72:Generated_Source\PSoC4/SDCard_SPI.c **** ;  DESCRIPTION:
  73:Generated_Source\PSoC4/SDCard_SPI.c **** ;     Disables SPIM operation.
  74:Generated_Source\PSoC4/SDCard_SPI.c **** ;
  75:Generated_Source\PSoC4/SDCard_SPI.c **** ;-----------------------------------------------------------------------------
  76:Generated_Source\PSoC4/SDCard_SPI.c **** ;
  77:Generated_Source\PSoC4/SDCard_SPI.c **** ;  ARGUMENTS:  none
  78:Generated_Source\PSoC4/SDCard_SPI.c **** ;
  79:Generated_Source\PSoC4/SDCard_SPI.c **** ;  RETURNS:  none
  80:Generated_Source\PSoC4/SDCard_SPI.c **** ;
  81:Generated_Source\PSoC4/SDCard_SPI.c **** ;  SIDE EFFECTS: 
  82:Generated_Source\PSoC4/SDCard_SPI.c **** ;    The A and X registers may be modified by this or future implementations
  83:Generated_Source\PSoC4/SDCard_SPI.c **** ;    of this function.  The same is true for all RAM page pointer registers in
  84:Generated_Source\PSoC4/SDCard_SPI.c **** ;    the Large Memory Model.  When necessary, it is the calling function's
  85:Generated_Source\PSoC4/SDCard_SPI.c **** ;    responsibility to perserve their values across calls to fastcall16 
  86:Generated_Source\PSoC4/SDCard_SPI.c **** ;    functions.
  87:Generated_Source\PSoC4/SDCard_SPI.c **** ;
  88:Generated_Source\PSoC4/SDCard_SPI.c **** ;  THEORY of OPERATION or PROCEDURE:
  89:Generated_Source\PSoC4/SDCard_SPI.c **** ;     Clear the start bit in the Control register.
  90:Generated_Source\PSoC4/SDCard_SPI.c **** ;
  91:Generated_Source\PSoC4/SDCard_SPI.c **** */
  92:Generated_Source\PSoC4/SDCard_SPI.c **** void  SDCard_UnInitHdwr(void)
  93:Generated_Source\PSoC4/SDCard_SPI.c **** {
  73              		.loc 1 93 0
  74              		.cfi_startproc
  75              		@ args = 0, pretend = 0, frame = 0
  76              		@ frame_needed = 1, uses_anonymous_args = 0
  77 0000 80B5     		push	{r7, lr}
  78              		.cfi_def_cfa_offset 8
ARM GAS  C:\Users\Rafael\AppData\Local\Temp\cci6BCat.s 			page 4


  79              		.cfi_offset 7, -8
  80              		.cfi_offset 14, -4
  81 0002 00AF     		add	r7, sp, #0
  82              		.cfi_def_cfa_register 7
  94:Generated_Source\PSoC4/SDCard_SPI.c **** 	SDCard_SD_CS_Write(1);
  83              		.loc 1 94 0
  84 0004 0120     		movs	r0, #1
  85 0006 FFF7FEFF 		bl	SDCard_SD_CS_Write
  95:Generated_Source\PSoC4/SDCard_SPI.c **** 	SDCard_Select(0);
  86              		.loc 1 95 0
  87 000a 0020     		movs	r0, #0
  88 000c FFF7FEFF 		bl	SDCard_Select
  96:Generated_Source\PSoC4/SDCard_SPI.c **** 	SDCard_SPIM_Stop();
  89              		.loc 1 96 0
  90 0010 FFF7FEFF 		bl	SDCard_SPIM_Stop
  97:Generated_Source\PSoC4/SDCard_SPI.c **** }
  91              		.loc 1 97 0
  92 0014 C046     		nop
  93 0016 BD46     		mov	sp, r7
  94              		@ sp needed
  95 0018 80BD     		pop	{r7, pc}
  96              		.cfi_endproc
  97              	.LFE35:
  98              		.size	SDCard_UnInitHdwr, .-SDCard_UnInitHdwr
  99 001a C046     		.section	.text.SDCard_Select,"ax",%progbits
 100              		.align	2
 101              		.global	SDCard_Select
 102              		.code	16
 103              		.thumb_func
 104              		.type	SDCard_Select, %function
 105              	SDCard_Select:
 106              	.LFB36:
  98:Generated_Source\PSoC4/SDCard_SPI.c **** 
  99:Generated_Source\PSoC4/SDCard_SPI.c **** /*
 100:Generated_Source\PSoC4/SDCard_SPI.c **** ;-----------------------------------------------------------------------------
 101:Generated_Source\PSoC4/SDCard_SPI.c **** ;  FUNCTION NAME: void SDCard_Select(uint8 bEnable)
 102:Generated_Source\PSoC4/SDCard_SPI.c **** ;
 103:Generated_Source\PSoC4/SDCard_SPI.c **** ;  DESCRIPTION:
 104:Generated_Source\PSoC4/SDCard_SPI.c **** ;     Enable or disable card select signal.
 105:Generated_Source\PSoC4/SDCard_SPI.c **** ;
 106:Generated_Source\PSoC4/SDCard_SPI.c **** ;-----------------------------------------------------------------------------
 107:Generated_Source\PSoC4/SDCard_SPI.c **** ;
 108:Generated_Source\PSoC4/SDCard_SPI.c **** ;  ARGUMENTS:
 109:Generated_Source\PSoC4/SDCard_SPI.c **** ;     uint8 bEnable => 0 Disable Card
 110:Generated_Source\PSoC4/SDCard_SPI.c **** ;                  => 1 Enable Card
 111:Generated_Source\PSoC4/SDCard_SPI.c **** ;     PASSED in Accumulator.
 112:Generated_Source\PSoC4/SDCard_SPI.c **** ;
 113:Generated_Source\PSoC4/SDCard_SPI.c **** ;  RETURNS:  none
 114:Generated_Source\PSoC4/SDCard_SPI.c **** ;
 115:Generated_Source\PSoC4/SDCard_SPI.c **** ;  SIDE EFFECTS: 
 116:Generated_Source\PSoC4/SDCard_SPI.c **** ;    The A and X registers may be modified by this or future implementations
 117:Generated_Source\PSoC4/SDCard_SPI.c **** ;    of this function.  The same is true for all RAM page pointer registers in
 118:Generated_Source\PSoC4/SDCard_SPI.c **** ;    the Large Memory Model.  When necessary, it is the calling function's
 119:Generated_Source\PSoC4/SDCard_SPI.c **** ;    responsibility to perserve their values across calls to fastcall16 
 120:Generated_Source\PSoC4/SDCard_SPI.c **** ;    functions.
 121:Generated_Source\PSoC4/SDCard_SPI.c **** ;
 122:Generated_Source\PSoC4/SDCard_SPI.c **** ;  THEORY of OPERATION or PROCEDURE:
ARM GAS  C:\Users\Rafael\AppData\Local\Temp\cci6BCat.s 			page 5


 123:Generated_Source\PSoC4/SDCard_SPI.c **** ;
 124:Generated_Source\PSoC4/SDCard_SPI.c **** ;-----------------------------------------------------------------------------
 125:Generated_Source\PSoC4/SDCard_SPI.c **** */
 126:Generated_Source\PSoC4/SDCard_SPI.c **** 
 127:Generated_Source\PSoC4/SDCard_SPI.c **** void  SDCard_Select(uint8 bEnable)
 128:Generated_Source\PSoC4/SDCard_SPI.c **** {
 107              		.loc 1 128 0
 108              		.cfi_startproc
 109              		@ args = 0, pretend = 0, frame = 8
 110              		@ frame_needed = 1, uses_anonymous_args = 0
 111 0000 80B5     		push	{r7, lr}
 112              		.cfi_def_cfa_offset 8
 113              		.cfi_offset 7, -8
 114              		.cfi_offset 14, -4
 115 0002 82B0     		sub	sp, sp, #8
 116              		.cfi_def_cfa_offset 16
 117 0004 00AF     		add	r7, sp, #0
 118              		.cfi_def_cfa_register 7
 119 0006 0200     		movs	r2, r0
 120 0008 FB1D     		adds	r3, r7, #7
 121 000a 1A70     		strb	r2, [r3]
 129:Generated_Source\PSoC4/SDCard_SPI.c **** 	if(bEnable)
 122              		.loc 1 129 0
 123 000c FB1D     		adds	r3, r7, #7
 124 000e 1B78     		ldrb	r3, [r3]
 125 0010 002B     		cmp	r3, #0
 126 0012 06D0     		beq	.L4
 130:Generated_Source\PSoC4/SDCard_SPI.c **** 		{
 131:Generated_Source\PSoC4/SDCard_SPI.c **** 		SDCard_SD_CS_Write(0);
 127              		.loc 1 131 0
 128 0014 0020     		movs	r0, #0
 129 0016 FFF7FEFF 		bl	SDCard_SD_CS_Write
 132:Generated_Source\PSoC4/SDCard_SPI.c **** 		SDCard_SD_PWR_Write(1);
 130              		.loc 1 132 0
 131 001a 0120     		movs	r0, #1
 132 001c FFF7FEFF 		bl	SDCard_SD_PWR_Write
 133:Generated_Source\PSoC4/SDCard_SPI.c **** 		}
 134:Generated_Source\PSoC4/SDCard_SPI.c **** 	else
 135:Generated_Source\PSoC4/SDCard_SPI.c **** 		{
 136:Generated_Source\PSoC4/SDCard_SPI.c **** 		SDCard_SD_CS_Write(1);
 137:Generated_Source\PSoC4/SDCard_SPI.c **** 		SDCard_SD_PWR_Write(0);
 138:Generated_Source\PSoC4/SDCard_SPI.c **** 		}
 139:Generated_Source\PSoC4/SDCard_SPI.c **** }
 133              		.loc 1 139 0
 134 0020 05E0     		b	.L6
 135              	.L4:
 136:Generated_Source\PSoC4/SDCard_SPI.c **** 		SDCard_SD_PWR_Write(0);
 136              		.loc 1 136 0
 137 0022 0120     		movs	r0, #1
 138 0024 FFF7FEFF 		bl	SDCard_SD_CS_Write
 137:Generated_Source\PSoC4/SDCard_SPI.c **** 		}
 139              		.loc 1 137 0
 140 0028 0020     		movs	r0, #0
 141 002a FFF7FEFF 		bl	SDCard_SD_PWR_Write
 142              	.L6:
 143              		.loc 1 139 0
 144 002e C046     		nop
ARM GAS  C:\Users\Rafael\AppData\Local\Temp\cci6BCat.s 			page 6


 145 0030 BD46     		mov	sp, r7
 146 0032 02B0     		add	sp, sp, #8
 147              		@ sp needed
 148 0034 80BD     		pop	{r7, pc}
 149              		.cfi_endproc
 150              	.LFE36:
 151              		.size	SDCard_Select, .-SDCard_Select
 152 0036 C046     		.section	.text.SDCard_SendTxData,"ax",%progbits
 153              		.align	2
 154              		.global	SDCard_SendTxData
 155              		.code	16
 156              		.thumb_func
 157              		.type	SDCard_SendTxData, %function
 158              	SDCard_SendTxData:
 159              	.LFB37:
 140:Generated_Source\PSoC4/SDCard_SPI.c **** 
 141:Generated_Source\PSoC4/SDCard_SPI.c **** /*
 142:Generated_Source\PSoC4/SDCard_SPI.c **** ;-----------------------------------------------------------------------------
 143:Generated_Source\PSoC4/SDCard_SPI.c **** ;  FUNCTION NAME: SDCard_SendTxData
 144:Generated_Source\PSoC4/SDCard_SPI.c **** ;
 145:Generated_Source\PSoC4/SDCard_SPI.c **** ;  DESCRIPTION:
 146:Generated_Source\PSoC4/SDCard_SPI.c **** ;     Initiates an SPI data transfer.
 147:Generated_Source\PSoC4/SDCard_SPI.c **** ;
 148:Generated_Source\PSoC4/SDCard_SPI.c **** ;-----------------------------------------------------------------------------
 149:Generated_Source\PSoC4/SDCard_SPI.c **** ;
 150:Generated_Source\PSoC4/SDCard_SPI.c **** ;  ARGUMENTS:
 151:Generated_Source\PSoC4/SDCard_SPI.c **** ;     uint8  bTxData - data to transmit.
 152:Generated_Source\PSoC4/SDCard_SPI.c **** ;        Passed in Accumulator.
 153:Generated_Source\PSoC4/SDCard_SPI.c **** ;
 154:Generated_Source\PSoC4/SDCard_SPI.c **** ;  RETURNS:  none
 155:Generated_Source\PSoC4/SDCard_SPI.c **** ;
 156:Generated_Source\PSoC4/SDCard_SPI.c **** ;  SIDE EFFECTS: 
 157:Generated_Source\PSoC4/SDCard_SPI.c **** ;    The A and X registers may be modified by this or future implementations
 158:Generated_Source\PSoC4/SDCard_SPI.c **** ;    of this function.  The same is true for all RAM page pointer registers in
 159:Generated_Source\PSoC4/SDCard_SPI.c **** ;    the Large Memory Model.  When necessary, it is the calling function's
 160:Generated_Source\PSoC4/SDCard_SPI.c **** ;    responsibility to perserve their values across calls to fastcall16 
 161:Generated_Source\PSoC4/SDCard_SPI.c **** ;    functions.
 162:Generated_Source\PSoC4/SDCard_SPI.c **** ;
 163:Generated_Source\PSoC4/SDCard_SPI.c **** ;  THEORY of OPERATION or PROCEDURE:
 164:Generated_Source\PSoC4/SDCard_SPI.c **** ;     Writes data to the TX buffer register.
 165:Generated_Source\PSoC4/SDCard_SPI.c **** ;
 166:Generated_Source\PSoC4/SDCard_SPI.c **** */
 167:Generated_Source\PSoC4/SDCard_SPI.c **** void  SDCard_SendTxData(uint8 bTxData)
 168:Generated_Source\PSoC4/SDCard_SPI.c **** {
 160              		.loc 1 168 0
 161              		.cfi_startproc
 162              		@ args = 0, pretend = 0, frame = 8
 163              		@ frame_needed = 1, uses_anonymous_args = 0
 164 0000 80B5     		push	{r7, lr}
 165              		.cfi_def_cfa_offset 8
 166              		.cfi_offset 7, -8
 167              		.cfi_offset 14, -4
 168 0002 82B0     		sub	sp, sp, #8
 169              		.cfi_def_cfa_offset 16
 170 0004 00AF     		add	r7, sp, #0
 171              		.cfi_def_cfa_register 7
 172 0006 0200     		movs	r2, r0
ARM GAS  C:\Users\Rafael\AppData\Local\Temp\cci6BCat.s 			page 7


 173 0008 FB1D     		adds	r3, r7, #7
 174 000a 1A70     		strb	r2, [r3]
 169:Generated_Source\PSoC4/SDCard_SPI.c **** 	SDCard_SPIM_SpiUartWriteTxData((uint32) bTxData);
 175              		.loc 1 169 0
 176 000c FB1D     		adds	r3, r7, #7
 177 000e 1B78     		ldrb	r3, [r3]
 178 0010 1800     		movs	r0, r3
 179 0012 FFF7FEFF 		bl	SDCard_SPIM_SpiUartWriteTxData
 170:Generated_Source\PSoC4/SDCard_SPI.c **** }
 180              		.loc 1 170 0
 181 0016 C046     		nop
 182 0018 BD46     		mov	sp, r7
 183 001a 02B0     		add	sp, sp, #8
 184              		@ sp needed
 185 001c 80BD     		pop	{r7, pc}
 186              		.cfi_endproc
 187              	.LFE37:
 188              		.size	SDCard_SendTxData, .-SDCard_SendTxData
 189 001e C046     		.section	.text.SDCard_WriteBuff256,"ax",%progbits
 190              		.align	2
 191              		.global	SDCard_WriteBuff256
 192              		.code	16
 193              		.thumb_func
 194              		.type	SDCard_WriteBuff256, %function
 195              	SDCard_WriteBuff256:
 196              	.LFB38:
 171:Generated_Source\PSoC4/SDCard_SPI.c **** 
 172:Generated_Source\PSoC4/SDCard_SPI.c **** /*
 173:Generated_Source\PSoC4/SDCard_SPI.c **** ;-----------------------------------------------------------------------------
 174:Generated_Source\PSoC4/SDCard_SPI.c **** ;  FUNCTION NAME: SDCard_WriteBuff256(char * sRamBuff)
 175:Generated_Source\PSoC4/SDCard_SPI.c **** ;
 176:Generated_Source\PSoC4/SDCard_SPI.c **** ;  DESCRIPTION:
 177:Generated_Source\PSoC4/SDCard_SPI.c **** ;     Writes a 256 byte buffer to the SPI port
 178:Generated_Source\PSoC4/SDCard_SPI.c **** ;
 179:Generated_Source\PSoC4/SDCard_SPI.c **** ;-----------------------------------------------------------------------------
 180:Generated_Source\PSoC4/SDCard_SPI.c **** ;
 181:Generated_Source\PSoC4/SDCard_SPI.c **** ;  ARGUMENTS:
 182:Generated_Source\PSoC4/SDCard_SPI.c **** ;     A:X  Pointer to String
 183:Generated_Source\PSoC4/SDCard_SPI.c **** ;          A contains MSB of string address
 184:Generated_Source\PSoC4/SDCard_SPI.c **** ;          X contains LSB of string address
 185:Generated_Source\PSoC4/SDCard_SPI.c **** ;
 186:Generated_Source\PSoC4/SDCard_SPI.c **** ;
 187:Generated_Source\PSoC4/SDCard_SPI.c **** ;  RETURNS:  none
 188:Generated_Source\PSoC4/SDCard_SPI.c **** ;
 189:Generated_Source\PSoC4/SDCard_SPI.c **** ;  SIDE EFFECTS: 
 190:Generated_Source\PSoC4/SDCard_SPI.c **** ;    The A and X registers may be modified by this or future implementations
 191:Generated_Source\PSoC4/SDCard_SPI.c **** ;    of this function.  The same is true for all RAM page pointer registers in
 192:Generated_Source\PSoC4/SDCard_SPI.c **** ;    the Large Memory Model.  When necessary, it is the calling function's
 193:Generated_Source\PSoC4/SDCard_SPI.c **** ;    responsibility to perserve their values across calls to fastcall16 
 194:Generated_Source\PSoC4/SDCard_SPI.c **** ;    functions.
 195:Generated_Source\PSoC4/SDCard_SPI.c **** ;
 196:Generated_Source\PSoC4/SDCard_SPI.c **** ;
 197:Generated_Source\PSoC4/SDCard_SPI.c **** ;  THEORY of OPERATION or PROCEDURE:
 198:Generated_Source\PSoC4/SDCard_SPI.c **** ;     Writes data to the TX buffer register.
 199:Generated_Source\PSoC4/SDCard_SPI.c **** ;
 200:Generated_Source\PSoC4/SDCard_SPI.c **** */
 201:Generated_Source\PSoC4/SDCard_SPI.c **** void  SDCard_WriteBuff256(char * sRamBuff)
ARM GAS  C:\Users\Rafael\AppData\Local\Temp\cci6BCat.s 			page 8


 202:Generated_Source\PSoC4/SDCard_SPI.c **** {
 197              		.loc 1 202 0
 198              		.cfi_startproc
 199              		@ args = 0, pretend = 0, frame = 16
 200              		@ frame_needed = 1, uses_anonymous_args = 0
 201 0000 80B5     		push	{r7, lr}
 202              		.cfi_def_cfa_offset 8
 203              		.cfi_offset 7, -8
 204              		.cfi_offset 14, -4
 205 0002 84B0     		sub	sp, sp, #16
 206              		.cfi_def_cfa_offset 24
 207 0004 00AF     		add	r7, sp, #0
 208              		.cfi_def_cfa_register 7
 209 0006 7860     		str	r0, [r7, #4]
 203:Generated_Source\PSoC4/SDCard_SPI.c **** 	uint32 i, temp;
 204:Generated_Source\PSoC4/SDCard_SPI.c **** 	for(i=0; i<256; i++)
 210              		.loc 1 204 0
 211 0008 0023     		movs	r3, #0
 212 000a FB60     		str	r3, [r7, #12]
 213 000c 12E0     		b	.L9
 214              	.L11:
 205:Generated_Source\PSoC4/SDCard_SPI.c **** 	{
 206:Generated_Source\PSoC4/SDCard_SPI.c **** 		SDCard_SPIM_SpiUartWriteTxData((uint32)sRamBuff[i]);
 215              		.loc 1 206 0
 216 000e 7A68     		ldr	r2, [r7, #4]
 217 0010 FB68     		ldr	r3, [r7, #12]
 218 0012 D318     		adds	r3, r2, r3
 219 0014 1B78     		ldrb	r3, [r3]
 220 0016 1800     		movs	r0, r3
 221 0018 FFF7FEFF 		bl	SDCard_SPIM_SpiUartWriteTxData
 207:Generated_Source\PSoC4/SDCard_SPI.c **** 		while(! (SDCard_SPIM_SpiUartGetRxBufferSize() > 0));
 222              		.loc 1 207 0
 223 001c C046     		nop
 224              	.L10:
 225              		.loc 1 207 0 is_stmt 0 discriminator 1
 226 001e FFF7FEFF 		bl	SDCard_SPIM_SpiUartGetRxBufferSize
 227 0022 031E     		subs	r3, r0, #0
 228 0024 FBD0     		beq	.L10
 208:Generated_Source\PSoC4/SDCard_SPI.c **** 		temp = SDCard_SPIM_SpiUartReadRxData();
 229              		.loc 1 208 0 is_stmt 1 discriminator 2
 230 0026 FFF7FEFF 		bl	SDCard_SPIM_SpiUartReadRxData
 231 002a 0300     		movs	r3, r0
 232 002c BB60     		str	r3, [r7, #8]
 204:Generated_Source\PSoC4/SDCard_SPI.c **** 	{
 233              		.loc 1 204 0 discriminator 2
 234 002e FB68     		ldr	r3, [r7, #12]
 235 0030 0133     		adds	r3, r3, #1
 236 0032 FB60     		str	r3, [r7, #12]
 237              	.L9:
 204:Generated_Source\PSoC4/SDCard_SPI.c **** 	{
 238              		.loc 1 204 0 is_stmt 0 discriminator 1
 239 0034 FB68     		ldr	r3, [r7, #12]
 240 0036 FF2B     		cmp	r3, #255
 241 0038 E9D9     		bls	.L11
 209:Generated_Source\PSoC4/SDCard_SPI.c **** 	}
 210:Generated_Source\PSoC4/SDCard_SPI.c **** }
 242              		.loc 1 210 0 is_stmt 1
ARM GAS  C:\Users\Rafael\AppData\Local\Temp\cci6BCat.s 			page 9


 243 003a C046     		nop
 244 003c BD46     		mov	sp, r7
 245 003e 04B0     		add	sp, sp, #16
 246              		@ sp needed
 247 0040 80BD     		pop	{r7, pc}
 248              		.cfi_endproc
 249              	.LFE38:
 250              		.size	SDCard_WriteBuff256, .-SDCard_WriteBuff256
 251 0042 C046     		.section	.text.SDCard_WriteBuff,"ax",%progbits
 252              		.align	2
 253              		.global	SDCard_WriteBuff
 254              		.code	16
 255              		.thumb_func
 256              		.type	SDCard_WriteBuff, %function
 257              	SDCard_WriteBuff:
 258              	.LFB39:
 211:Generated_Source\PSoC4/SDCard_SPI.c **** 
 212:Generated_Source\PSoC4/SDCard_SPI.c **** /*
 213:Generated_Source\PSoC4/SDCard_SPI.c **** ;-----------------------------------------------------------------------------
 214:Generated_Source\PSoC4/SDCard_SPI.c **** ;  FUNCTION NAME: SDCard_WriteBuff(uint8 * pBuff, uint8 bCnt)
 215:Generated_Source\PSoC4/SDCard_SPI.c **** ;
 216:Generated_Source\PSoC4/SDCard_SPI.c **** ;  DESCRIPTION:
 217:Generated_Source\PSoC4/SDCard_SPI.c **** ;     Writes n bytes to the SPI port
 218:Generated_Source\PSoC4/SDCard_SPI.c **** ;
 219:Generated_Source\PSoC4/SDCard_SPI.c **** ;-----------------------------------------------------------------------------
 220:Generated_Source\PSoC4/SDCard_SPI.c **** ;
 221:Generated_Source\PSoC4/SDCard_SPI.c **** ;  ARGUMENTS:
 222:Generated_Source\PSoC4/SDCard_SPI.c **** ;  FASTCALL16 ARGUMENTS:
 223:Generated_Source\PSoC4/SDCard_SPI.c **** ;
 224:Generated_Source\PSoC4/SDCard_SPI.c **** ;   [SP-3] => pBuff LSB Address.
 225:Generated_Source\PSoC4/SDCard_SPI.c **** ;   [SP-4] => pBuff MSB Address.
 226:Generated_Source\PSoC4/SDCard_SPI.c **** ;   [SP-5] => Buffer length to write.
 227:Generated_Source\PSoC4/SDCard_SPI.c **** ;
 228:Generated_Source\PSoC4/SDCard_SPI.c **** ;  RETURNS:  none
 229:Generated_Source\PSoC4/SDCard_SPI.c **** ;
 230:Generated_Source\PSoC4/SDCard_SPI.c **** ;  SIDE EFFECTS: 
 231:Generated_Source\PSoC4/SDCard_SPI.c **** ;    The A and X registers may be modified by this or future implementations
 232:Generated_Source\PSoC4/SDCard_SPI.c **** ;    of this function.  The same is true for all RAM page pointer registers in
 233:Generated_Source\PSoC4/SDCard_SPI.c **** ;    the Large Memory Model.  When necessary, it is the calling function's
 234:Generated_Source\PSoC4/SDCard_SPI.c **** ;    responsibility to perserve their values across calls to fastcall16 
 235:Generated_Source\PSoC4/SDCard_SPI.c **** ;    functions.
 236:Generated_Source\PSoC4/SDCard_SPI.c **** ;
 237:Generated_Source\PSoC4/SDCard_SPI.c **** ;
 238:Generated_Source\PSoC4/SDCard_SPI.c **** ;  THEORY of OPERATION or PROCEDURE:
 239:Generated_Source\PSoC4/SDCard_SPI.c **** ;     Writes n data byte to the TX buffer register.
 240:Generated_Source\PSoC4/SDCard_SPI.c **** ;
 241:Generated_Source\PSoC4/SDCard_SPI.c **** */
 242:Generated_Source\PSoC4/SDCard_SPI.c **** void  SDCard_WriteBuff(char * sRamBuff, uint8 bCnt)
 243:Generated_Source\PSoC4/SDCard_SPI.c **** {
 259              		.loc 1 243 0
 260              		.cfi_startproc
 261              		@ args = 0, pretend = 0, frame = 16
 262              		@ frame_needed = 1, uses_anonymous_args = 0
 263 0000 80B5     		push	{r7, lr}
 264              		.cfi_def_cfa_offset 8
 265              		.cfi_offset 7, -8
 266              		.cfi_offset 14, -4
ARM GAS  C:\Users\Rafael\AppData\Local\Temp\cci6BCat.s 			page 10


 267 0002 84B0     		sub	sp, sp, #16
 268              		.cfi_def_cfa_offset 24
 269 0004 00AF     		add	r7, sp, #0
 270              		.cfi_def_cfa_register 7
 271 0006 7860     		str	r0, [r7, #4]
 272 0008 0A00     		movs	r2, r1
 273 000a FB1C     		adds	r3, r7, #3
 274 000c 1A70     		strb	r2, [r3]
 244:Generated_Source\PSoC4/SDCard_SPI.c **** 	uint32 i, temp;
 245:Generated_Source\PSoC4/SDCard_SPI.c **** 	for(i=0; i<bCnt; i++)
 275              		.loc 1 245 0
 276 000e 0023     		movs	r3, #0
 277 0010 FB60     		str	r3, [r7, #12]
 278 0012 12E0     		b	.L13
 279              	.L15:
 246:Generated_Source\PSoC4/SDCard_SPI.c **** 	{
 247:Generated_Source\PSoC4/SDCard_SPI.c **** 		SDCard_SPIM_SpiUartWriteTxData((uint32)sRamBuff[i]);
 280              		.loc 1 247 0
 281 0014 7A68     		ldr	r2, [r7, #4]
 282 0016 FB68     		ldr	r3, [r7, #12]
 283 0018 D318     		adds	r3, r2, r3
 284 001a 1B78     		ldrb	r3, [r3]
 285 001c 1800     		movs	r0, r3
 286 001e FFF7FEFF 		bl	SDCard_SPIM_SpiUartWriteTxData
 248:Generated_Source\PSoC4/SDCard_SPI.c **** 		while(! (SDCard_SPIM_SpiUartGetRxBufferSize() > 0));
 287              		.loc 1 248 0
 288 0022 C046     		nop
 289              	.L14:
 290              		.loc 1 248 0 is_stmt 0 discriminator 1
 291 0024 FFF7FEFF 		bl	SDCard_SPIM_SpiUartGetRxBufferSize
 292 0028 031E     		subs	r3, r0, #0
 293 002a FBD0     		beq	.L14
 249:Generated_Source\PSoC4/SDCard_SPI.c **** 		temp = SDCard_SPIM_SpiUartReadRxData();
 294              		.loc 1 249 0 is_stmt 1 discriminator 2
 295 002c FFF7FEFF 		bl	SDCard_SPIM_SpiUartReadRxData
 296 0030 0300     		movs	r3, r0
 297 0032 BB60     		str	r3, [r7, #8]
 245:Generated_Source\PSoC4/SDCard_SPI.c **** 	{
 298              		.loc 1 245 0 discriminator 2
 299 0034 FB68     		ldr	r3, [r7, #12]
 300 0036 0133     		adds	r3, r3, #1
 301 0038 FB60     		str	r3, [r7, #12]
 302              	.L13:
 245:Generated_Source\PSoC4/SDCard_SPI.c **** 	{
 303              		.loc 1 245 0 is_stmt 0 discriminator 1
 304 003a FB1C     		adds	r3, r7, #3
 305 003c 1A78     		ldrb	r2, [r3]
 306 003e FB68     		ldr	r3, [r7, #12]
 307 0040 9A42     		cmp	r2, r3
 308 0042 E7D8     		bhi	.L15
 250:Generated_Source\PSoC4/SDCard_SPI.c **** 	}
 251:Generated_Source\PSoC4/SDCard_SPI.c **** }
 309              		.loc 1 251 0 is_stmt 1
 310 0044 C046     		nop
 311 0046 BD46     		mov	sp, r7
 312 0048 04B0     		add	sp, sp, #16
 313              		@ sp needed
ARM GAS  C:\Users\Rafael\AppData\Local\Temp\cci6BCat.s 			page 11


 314 004a 80BD     		pop	{r7, pc}
 315              		.cfi_endproc
 316              	.LFE39:
 317              		.size	SDCard_WriteBuff, .-SDCard_WriteBuff
 318              		.section	.text.SDCard_ReadBuff,"ax",%progbits
 319              		.align	2
 320              		.global	SDCard_ReadBuff
 321              		.code	16
 322              		.thumb_func
 323              		.type	SDCard_ReadBuff, %function
 324              	SDCard_ReadBuff:
 325              	.LFB40:
 252:Generated_Source\PSoC4/SDCard_SPI.c **** 
 253:Generated_Source\PSoC4/SDCard_SPI.c **** /*
 254:Generated_Source\PSoC4/SDCard_SPI.c **** ;-----------------------------------------------------------------------------
 255:Generated_Source\PSoC4/SDCard_SPI.c **** ;  FUNCTION NAME: SDCard_ReadBuff(uint8 * pBuff, uint8 bCnt)
 256:Generated_Source\PSoC4/SDCard_SPI.c **** ;
 257:Generated_Source\PSoC4/SDCard_SPI.c **** ;  DESCRIPTION:
 258:Generated_Source\PSoC4/SDCard_SPI.c **** ;     Reads n bytes from the SPI port
 259:Generated_Source\PSoC4/SDCard_SPI.c **** ;
 260:Generated_Source\PSoC4/SDCard_SPI.c **** ;-----------------------------------------------------------------------------
 261:Generated_Source\PSoC4/SDCard_SPI.c **** ;
 262:Generated_Source\PSoC4/SDCard_SPI.c **** ;  ARGUMENTS:
 263:Generated_Source\PSoC4/SDCard_SPI.c **** ;  FASTCALL16 ARGUMENTS:
 264:Generated_Source\PSoC4/SDCard_SPI.c **** ;
 265:Generated_Source\PSoC4/SDCard_SPI.c **** ;   [SP-3] => pBuff LSB Address.
 266:Generated_Source\PSoC4/SDCard_SPI.c **** ;   [SP-4] => pBuff MSB Address.
 267:Generated_Source\PSoC4/SDCard_SPI.c **** ;   [SP-5] => Buffer length to read (bCnt).
 268:Generated_Source\PSoC4/SDCard_SPI.c **** ;
 269:Generated_Source\PSoC4/SDCard_SPI.c **** ;
 270:Generated_Source\PSoC4/SDCard_SPI.c **** ;  RETURNS:  none
 271:Generated_Source\PSoC4/SDCard_SPI.c **** ;
 272:Generated_Source\PSoC4/SDCard_SPI.c **** ;  SIDE EFFECTS: 
 273:Generated_Source\PSoC4/SDCard_SPI.c **** ;    The A and X registers may be modified by this or future implementations
 274:Generated_Source\PSoC4/SDCard_SPI.c **** ;    of this function.  The same is true for all RAM page pointer registers in
 275:Generated_Source\PSoC4/SDCard_SPI.c **** ;    the Large Memory Model.  When necessary, it is the calling function's
 276:Generated_Source\PSoC4/SDCard_SPI.c **** ;    responsibility to perserve their values across calls to fastcall16 
 277:Generated_Source\PSoC4/SDCard_SPI.c **** ;    functions.
 278:Generated_Source\PSoC4/SDCard_SPI.c **** ;
 279:Generated_Source\PSoC4/SDCard_SPI.c **** ;
 280:Generated_Source\PSoC4/SDCard_SPI.c **** ;  THEORY of OPERATION or PROCEDURE:
 281:Generated_Source\PSoC4/SDCard_SPI.c **** ;     Writes data to the TX buffer register.
 282:Generated_Source\PSoC4/SDCard_SPI.c **** ;
 283:Generated_Source\PSoC4/SDCard_SPI.c **** */
 284:Generated_Source\PSoC4/SDCard_SPI.c **** void  SDCard_ReadBuff(char * sRamBuff, uint8 bCnt)
 285:Generated_Source\PSoC4/SDCard_SPI.c **** {
 326              		.loc 1 285 0
 327              		.cfi_startproc
 328              		@ args = 0, pretend = 0, frame = 16
 329              		@ frame_needed = 1, uses_anonymous_args = 0
 330 0000 90B5     		push	{r4, r7, lr}
 331              		.cfi_def_cfa_offset 12
 332              		.cfi_offset 4, -12
 333              		.cfi_offset 7, -8
 334              		.cfi_offset 14, -4
 335 0002 85B0     		sub	sp, sp, #20
 336              		.cfi_def_cfa_offset 32
ARM GAS  C:\Users\Rafael\AppData\Local\Temp\cci6BCat.s 			page 12


 337 0004 00AF     		add	r7, sp, #0
 338              		.cfi_def_cfa_register 7
 339 0006 7860     		str	r0, [r7, #4]
 340 0008 0A00     		movs	r2, r1
 341 000a FB1C     		adds	r3, r7, #3
 342 000c 1A70     		strb	r2, [r3]
 286:Generated_Source\PSoC4/SDCard_SPI.c **** 	uint32 i;
 287:Generated_Source\PSoC4/SDCard_SPI.c **** 	for(i=0; i<bCnt; i++)
 343              		.loc 1 287 0
 344 000e 0023     		movs	r3, #0
 345 0010 FB60     		str	r3, [r7, #12]
 346 0012 12E0     		b	.L17
 347              	.L19:
 288:Generated_Source\PSoC4/SDCard_SPI.c **** 	{
 289:Generated_Source\PSoC4/SDCard_SPI.c **** 		SDCard_SPIM_SpiUartWriteTxData(0xFF);
 348              		.loc 1 289 0
 349 0014 FF20     		movs	r0, #255
 350 0016 FFF7FEFF 		bl	SDCard_SPIM_SpiUartWriteTxData
 290:Generated_Source\PSoC4/SDCard_SPI.c **** 		while(! (SDCard_SPIM_SpiUartGetRxBufferSize() > 0));
 351              		.loc 1 290 0
 352 001a C046     		nop
 353              	.L18:
 354              		.loc 1 290 0 is_stmt 0 discriminator 1
 355 001c FFF7FEFF 		bl	SDCard_SPIM_SpiUartGetRxBufferSize
 356 0020 031E     		subs	r3, r0, #0
 357 0022 FBD0     		beq	.L18
 291:Generated_Source\PSoC4/SDCard_SPI.c **** 		sRamBuff[i] = (char) SDCard_SPIM_SpiUartReadRxData();
 358              		.loc 1 291 0 is_stmt 1 discriminator 2
 359 0024 7A68     		ldr	r2, [r7, #4]
 360 0026 FB68     		ldr	r3, [r7, #12]
 361 0028 D418     		adds	r4, r2, r3
 362 002a FFF7FEFF 		bl	SDCard_SPIM_SpiUartReadRxData
 363 002e 0300     		movs	r3, r0
 364 0030 DBB2     		uxtb	r3, r3
 365 0032 2370     		strb	r3, [r4]
 287:Generated_Source\PSoC4/SDCard_SPI.c **** 	{
 366              		.loc 1 287 0 discriminator 2
 367 0034 FB68     		ldr	r3, [r7, #12]
 368 0036 0133     		adds	r3, r3, #1
 369 0038 FB60     		str	r3, [r7, #12]
 370              	.L17:
 287:Generated_Source\PSoC4/SDCard_SPI.c **** 	{
 371              		.loc 1 287 0 is_stmt 0 discriminator 1
 372 003a FB1C     		adds	r3, r7, #3
 373 003c 1A78     		ldrb	r2, [r3]
 374 003e FB68     		ldr	r3, [r7, #12]
 375 0040 9A42     		cmp	r2, r3
 376 0042 E7D8     		bhi	.L19
 292:Generated_Source\PSoC4/SDCard_SPI.c **** 	}
 293:Generated_Source\PSoC4/SDCard_SPI.c **** }
 377              		.loc 1 293 0 is_stmt 1
 378 0044 C046     		nop
 379 0046 BD46     		mov	sp, r7
 380 0048 05B0     		add	sp, sp, #20
 381              		@ sp needed
 382 004a 90BD     		pop	{r4, r7, pc}
 383              		.cfi_endproc
ARM GAS  C:\Users\Rafael\AppData\Local\Temp\cci6BCat.s 			page 13


 384              	.LFE40:
 385              		.size	SDCard_ReadBuff, .-SDCard_ReadBuff
 386              		.section	.text.SDCard_ReadBuff256,"ax",%progbits
 387              		.align	2
 388              		.global	SDCard_ReadBuff256
 389              		.code	16
 390              		.thumb_func
 391              		.type	SDCard_ReadBuff256, %function
 392              	SDCard_ReadBuff256:
 393              	.LFB41:
 294:Generated_Source\PSoC4/SDCard_SPI.c **** 
 295:Generated_Source\PSoC4/SDCard_SPI.c **** /*
 296:Generated_Source\PSoC4/SDCard_SPI.c **** ;-----------------------------------------------------------------------------
 297:Generated_Source\PSoC4/SDCard_SPI.c **** ;  FUNCTION NAME: SDCard_ReadBuff256(char * sRamBuff)
 298:Generated_Source\PSoC4/SDCard_SPI.c **** ;
 299:Generated_Source\PSoC4/SDCard_SPI.c **** ;  DESCRIPTION:
 300:Generated_Source\PSoC4/SDCard_SPI.c **** ;     Reads 256 bytes into a buffer from the SPI port
 301:Generated_Source\PSoC4/SDCard_SPI.c **** ;
 302:Generated_Source\PSoC4/SDCard_SPI.c **** ;-----------------------------------------------------------------------------
 303:Generated_Source\PSoC4/SDCard_SPI.c **** ;
 304:Generated_Source\PSoC4/SDCard_SPI.c **** ;  ARGUMENTS:
 305:Generated_Source\PSoC4/SDCard_SPI.c **** ;     A:X  Pointer to String
 306:Generated_Source\PSoC4/SDCard_SPI.c **** ;          A contains MSB of string address
 307:Generated_Source\PSoC4/SDCard_SPI.c **** ;          X contains LSB of string address
 308:Generated_Source\PSoC4/SDCard_SPI.c **** ;
 309:Generated_Source\PSoC4/SDCard_SPI.c **** ;
 310:Generated_Source\PSoC4/SDCard_SPI.c **** ;  RETURNS:  none
 311:Generated_Source\PSoC4/SDCard_SPI.c **** ;
 312:Generated_Source\PSoC4/SDCard_SPI.c **** ;  SIDE EFFECTS: 
 313:Generated_Source\PSoC4/SDCard_SPI.c **** ;    The A and X registers may be modified by this or future implementations
 314:Generated_Source\PSoC4/SDCard_SPI.c **** ;    of this function.  The same is true for all RAM page pointer registers in
 315:Generated_Source\PSoC4/SDCard_SPI.c **** ;    the Large Memory Model.  When necessary, it is the calling function's
 316:Generated_Source\PSoC4/SDCard_SPI.c **** ;    responsibility to perserve their values across calls to fastcall16 
 317:Generated_Source\PSoC4/SDCard_SPI.c **** ;    functions.
 318:Generated_Source\PSoC4/SDCard_SPI.c **** ;
 319:Generated_Source\PSoC4/SDCard_SPI.c **** ;
 320:Generated_Source\PSoC4/SDCard_SPI.c **** ;  THEORY of OPERATION or PROCEDURE:
 321:Generated_Source\PSoC4/SDCard_SPI.c **** ;     Reads data from the TX buffer register.
 322:Generated_Source\PSoC4/SDCard_SPI.c **** ;
 323:Generated_Source\PSoC4/SDCard_SPI.c **** */
 324:Generated_Source\PSoC4/SDCard_SPI.c **** void  SDCard_ReadBuff256(char * sRamBuff)
 325:Generated_Source\PSoC4/SDCard_SPI.c **** {
 394              		.loc 1 325 0
 395              		.cfi_startproc
 396              		@ args = 0, pretend = 0, frame = 16
 397              		@ frame_needed = 1, uses_anonymous_args = 0
 398 0000 90B5     		push	{r4, r7, lr}
 399              		.cfi_def_cfa_offset 12
 400              		.cfi_offset 4, -12
 401              		.cfi_offset 7, -8
 402              		.cfi_offset 14, -4
 403 0002 85B0     		sub	sp, sp, #20
 404              		.cfi_def_cfa_offset 32
 405 0004 00AF     		add	r7, sp, #0
 406              		.cfi_def_cfa_register 7
 407 0006 7860     		str	r0, [r7, #4]
 326:Generated_Source\PSoC4/SDCard_SPI.c **** 	uint32 i;
ARM GAS  C:\Users\Rafael\AppData\Local\Temp\cci6BCat.s 			page 14


 327:Generated_Source\PSoC4/SDCard_SPI.c **** 	for(i=0; i<256; i++)
 408              		.loc 1 327 0
 409 0008 0023     		movs	r3, #0
 410 000a FB60     		str	r3, [r7, #12]
 411 000c 12E0     		b	.L21
 412              	.L23:
 328:Generated_Source\PSoC4/SDCard_SPI.c **** 	{
 329:Generated_Source\PSoC4/SDCard_SPI.c **** 		SDCard_SPIM_SpiUartWriteTxData(0xFF);
 413              		.loc 1 329 0
 414 000e FF20     		movs	r0, #255
 415 0010 FFF7FEFF 		bl	SDCard_SPIM_SpiUartWriteTxData
 330:Generated_Source\PSoC4/SDCard_SPI.c **** 		while(! (SDCard_SPIM_SpiUartGetRxBufferSize() > 0));
 416              		.loc 1 330 0
 417 0014 C046     		nop
 418              	.L22:
 419              		.loc 1 330 0 is_stmt 0 discriminator 1
 420 0016 FFF7FEFF 		bl	SDCard_SPIM_SpiUartGetRxBufferSize
 421 001a 031E     		subs	r3, r0, #0
 422 001c FBD0     		beq	.L22
 331:Generated_Source\PSoC4/SDCard_SPI.c **** 		sRamBuff[i] = (char) SDCard_SPIM_SpiUartReadRxData();
 423              		.loc 1 331 0 is_stmt 1 discriminator 2
 424 001e 7A68     		ldr	r2, [r7, #4]
 425 0020 FB68     		ldr	r3, [r7, #12]
 426 0022 D418     		adds	r4, r2, r3
 427 0024 FFF7FEFF 		bl	SDCard_SPIM_SpiUartReadRxData
 428 0028 0300     		movs	r3, r0
 429 002a DBB2     		uxtb	r3, r3
 430 002c 2370     		strb	r3, [r4]
 327:Generated_Source\PSoC4/SDCard_SPI.c **** 	{
 431              		.loc 1 327 0 discriminator 2
 432 002e FB68     		ldr	r3, [r7, #12]
 433 0030 0133     		adds	r3, r3, #1
 434 0032 FB60     		str	r3, [r7, #12]
 435              	.L21:
 327:Generated_Source\PSoC4/SDCard_SPI.c **** 	{
 436              		.loc 1 327 0 is_stmt 0 discriminator 1
 437 0034 FB68     		ldr	r3, [r7, #12]
 438 0036 FF2B     		cmp	r3, #255
 439 0038 E9D9     		bls	.L23
 332:Generated_Source\PSoC4/SDCard_SPI.c **** 	}
 333:Generated_Source\PSoC4/SDCard_SPI.c **** }
 440              		.loc 1 333 0 is_stmt 1
 441 003a C046     		nop
 442 003c BD46     		mov	sp, r7
 443 003e 05B0     		add	sp, sp, #20
 444              		@ sp needed
 445 0040 90BD     		pop	{r4, r7, pc}
 446              		.cfi_endproc
 447              	.LFE41:
 448              		.size	SDCard_ReadBuff256, .-SDCard_ReadBuff256
 449 0042 C046     		.section	.text.SDCard_bReadRxData,"ax",%progbits
 450              		.align	2
 451              		.global	SDCard_bReadRxData
 452              		.code	16
 453              		.thumb_func
 454              		.type	SDCard_bReadRxData, %function
 455              	SDCard_bReadRxData:
ARM GAS  C:\Users\Rafael\AppData\Local\Temp\cci6BCat.s 			page 15


 456              	.LFB42:
 334:Generated_Source\PSoC4/SDCard_SPI.c **** 
 335:Generated_Source\PSoC4/SDCard_SPI.c **** /*
 336:Generated_Source\PSoC4/SDCard_SPI.c **** ;-----------------------------------------------------------------------------
 337:Generated_Source\PSoC4/SDCard_SPI.c **** ;  FUNCTION NAME: SDCard_bReadRxData
 338:Generated_Source\PSoC4/SDCard_SPI.c **** ;
 339:Generated_Source\PSoC4/SDCard_SPI.c **** ;  DESCRIPTION:
 340:Generated_Source\PSoC4/SDCard_SPI.c **** ;     Reads the RX buffer register.  Should check the status regiser to make
 341:Generated_Source\PSoC4/SDCard_SPI.c **** ;     sure data is valid.
 342:Generated_Source\PSoC4/SDCard_SPI.c **** ;
 343:Generated_Source\PSoC4/SDCard_SPI.c **** ;-----------------------------------------------------------------------------
 344:Generated_Source\PSoC4/SDCard_SPI.c **** ;
 345:Generated_Source\PSoC4/SDCard_SPI.c **** ;  ARGUMENTS:  none
 346:Generated_Source\PSoC4/SDCard_SPI.c **** ;
 347:Generated_Source\PSoC4/SDCard_SPI.c **** ;  RETURNS:
 348:Generated_Source\PSoC4/SDCard_SPI.c **** ;     bRxData - returned in A.
 349:Generated_Source\PSoC4/SDCard_SPI.c **** ;
 350:Generated_Source\PSoC4/SDCard_SPI.c **** ;  SIDE EFFECTS: 
 351:Generated_Source\PSoC4/SDCard_SPI.c **** ;    The A and X registers may be modified by this or future implementations
 352:Generated_Source\PSoC4/SDCard_SPI.c **** ;    of this function.  The same is true for all RAM page pointer registers in
 353:Generated_Source\PSoC4/SDCard_SPI.c **** ;    the Large Memory Model.  When necessary, it is the calling function's
 354:Generated_Source\PSoC4/SDCard_SPI.c **** ;    responsibility to perserve their values across calls to fastcall16 
 355:Generated_Source\PSoC4/SDCard_SPI.c **** ;    functions.
 356:Generated_Source\PSoC4/SDCard_SPI.c **** ;
 357:Generated_Source\PSoC4/SDCard_SPI.c **** ;  THEORY of OPERATION or PROCEDURE:
 358:Generated_Source\PSoC4/SDCard_SPI.c **** ;
 359:Generated_Source\PSoC4/SDCard_SPI.c **** */
 360:Generated_Source\PSoC4/SDCard_SPI.c **** uint8  SDCard_bReadRxData(void)
 361:Generated_Source\PSoC4/SDCard_SPI.c **** {
 457              		.loc 1 361 0
 458              		.cfi_startproc
 459              		@ args = 0, pretend = 0, frame = 8
 460              		@ frame_needed = 1, uses_anonymous_args = 0
 461 0000 80B5     		push	{r7, lr}
 462              		.cfi_def_cfa_offset 8
 463              		.cfi_offset 7, -8
 464              		.cfi_offset 14, -4
 465 0002 82B0     		sub	sp, sp, #8
 466              		.cfi_def_cfa_offset 16
 467 0004 00AF     		add	r7, sp, #0
 468              		.cfi_def_cfa_register 7
 362:Generated_Source\PSoC4/SDCard_SPI.c **** 	uint8 buf;
 363:Generated_Source\PSoC4/SDCard_SPI.c **** 	buf = (uint8) SDCard_SPIM_SpiUartReadRxData();
 469              		.loc 1 363 0
 470 0006 FFF7FEFF 		bl	SDCard_SPIM_SpiUartReadRxData
 471 000a 0200     		movs	r2, r0
 472 000c FB1D     		adds	r3, r7, #7
 473 000e 1A70     		strb	r2, [r3]
 364:Generated_Source\PSoC4/SDCard_SPI.c **** 	return(buf);
 474              		.loc 1 364 0
 475 0010 FB1D     		adds	r3, r7, #7
 476 0012 1B78     		ldrb	r3, [r3]
 365:Generated_Source\PSoC4/SDCard_SPI.c **** }
 477              		.loc 1 365 0
 478 0014 1800     		movs	r0, r3
 479 0016 BD46     		mov	sp, r7
 480 0018 02B0     		add	sp, sp, #8
ARM GAS  C:\Users\Rafael\AppData\Local\Temp\cci6BCat.s 			page 16


 481              		@ sp needed
 482 001a 80BD     		pop	{r7, pc}
 483              		.cfi_endproc
 484              	.LFE42:
 485              		.size	SDCard_bReadRxData, .-SDCard_bReadRxData
 486              		.section	.text.SDCard_bReadStatus,"ax",%progbits
 487              		.align	2
 488              		.global	SDCard_bReadStatus
 489              		.code	16
 490              		.thumb_func
 491              		.type	SDCard_bReadStatus, %function
 492              	SDCard_bReadStatus:
 493              	.LFB43:
 366:Generated_Source\PSoC4/SDCard_SPI.c **** 
 367:Generated_Source\PSoC4/SDCard_SPI.c **** /*
 368:Generated_Source\PSoC4/SDCard_SPI.c **** ;-----------------------------------------------------------------------------
 369:Generated_Source\PSoC4/SDCard_SPI.c **** ;  FUNCTION NAME: SDCard_ReadStatus
 370:Generated_Source\PSoC4/SDCard_SPI.c **** ;
 371:Generated_Source\PSoC4/SDCard_SPI.c **** ;  DESCRIPTION:
 372:Generated_Source\PSoC4/SDCard_SPI.c **** ;     Reads the SPIM Status bits in the Control/Status register.
 373:Generated_Source\PSoC4/SDCard_SPI.c **** ;
 374:Generated_Source\PSoC4/SDCard_SPI.c **** ;-----------------------------------------------------------------------------
 375:Generated_Source\PSoC4/SDCard_SPI.c **** ;
 376:Generated_Source\PSoC4/SDCard_SPI.c **** ;  ARGUMENTS:  none
 377:Generated_Source\PSoC4/SDCard_SPI.c **** ;
 378:Generated_Source\PSoC4/SDCard_SPI.c **** ;  RETURNS:
 379:Generated_Source\PSoC4/SDCard_SPI.c **** ;     uint8  bStatus - transmit status data.  Use the defined bit masks.
 380:Generated_Source\PSoC4/SDCard_SPI.c **** ;        Returned in Accumulator.
 381:Generated_Source\PSoC4/SDCard_SPI.c **** ;
 382:Generated_Source\PSoC4/SDCard_SPI.c **** ;  SIDE EFFECTS: 
 383:Generated_Source\PSoC4/SDCard_SPI.c **** ;    The A and X registers may be modified by this or future implementations
 384:Generated_Source\PSoC4/SDCard_SPI.c **** ;    of this function.  The same is true for all RAM page pointer registers in
 385:Generated_Source\PSoC4/SDCard_SPI.c **** ;    the Large Memory Model.  When necessary, it is the calling function's
 386:Generated_Source\PSoC4/SDCard_SPI.c **** ;    responsibility to perserve their values across calls to fastcall16 
 387:Generated_Source\PSoC4/SDCard_SPI.c **** ;    functions.
 388:Generated_Source\PSoC4/SDCard_SPI.c **** ;
 389:Generated_Source\PSoC4/SDCard_SPI.c **** ;  THEORY of OPERATION or PROCEDURE:
 390:Generated_Source\PSoC4/SDCard_SPI.c **** ;     Read the status and control register.
 391:Generated_Source\PSoC4/SDCard_SPI.c **** ;
 392:Generated_Source\PSoC4/SDCard_SPI.c **** */
 393:Generated_Source\PSoC4/SDCard_SPI.c **** uint8  SDCard_bReadStatus(void)
 394:Generated_Source\PSoC4/SDCard_SPI.c **** {
 494              		.loc 1 394 0
 495              		.cfi_startproc
 496              		@ args = 0, pretend = 0, frame = 8
 497              		@ frame_needed = 1, uses_anonymous_args = 0
 498 0000 80B5     		push	{r7, lr}
 499              		.cfi_def_cfa_offset 8
 500              		.cfi_offset 7, -8
 501              		.cfi_offset 14, -4
 502 0002 82B0     		sub	sp, sp, #8
 503              		.cfi_def_cfa_offset 16
 504 0004 00AF     		add	r7, sp, #0
 505              		.cfi_def_cfa_register 7
 395:Generated_Source\PSoC4/SDCard_SPI.c **** 	uint8 stat;
 396:Generated_Source\PSoC4/SDCard_SPI.c **** 	stat = SDCard_SPIM_SpiUartGetRxBufferSize();
 506              		.loc 1 396 0
ARM GAS  C:\Users\Rafael\AppData\Local\Temp\cci6BCat.s 			page 17


 507 0006 FFF7FEFF 		bl	SDCard_SPIM_SpiUartGetRxBufferSize
 508 000a 0200     		movs	r2, r0
 509 000c FB1D     		adds	r3, r7, #7
 510 000e 1A70     		strb	r2, [r3]
 397:Generated_Source\PSoC4/SDCard_SPI.c **** 	return(stat);
 511              		.loc 1 397 0
 512 0010 FB1D     		adds	r3, r7, #7
 513 0012 1B78     		ldrb	r3, [r3]
 398:Generated_Source\PSoC4/SDCard_SPI.c **** }
 514              		.loc 1 398 0
 515 0014 1800     		movs	r0, r3
 516 0016 BD46     		mov	sp, r7
 517 0018 02B0     		add	sp, sp, #8
 518              		@ sp needed
 519 001a 80BD     		pop	{r7, pc}
 520              		.cfi_endproc
 521              	.LFE43:
 522              		.size	SDCard_bReadStatus, .-SDCard_bReadStatus
 523              		.text
 524              	.Letext0:
 525              		.file 2 "Generated_Source\\PSoC4/cytypes.h"